
Optional file libmchp_peripheral.a not found

Optional file libmchp_peripheral_32MX270F256B.a not found
Archive member included to satisfy reference by file (symbol)

c:/program files/microchip/xc32/v4.60/bin/bin/../../lib/gcc/pic32mx/8.3.1/../../../../pic32mx/lib\libpic32.a(default-on-reset.o)
                              C:\Users\aryll\AppData\Local\Temp\ccKXWNGz.o (_on_reset)
c:/program files/microchip/xc32/v4.60/bin/bin/../../lib/gcc/pic32mx/8.3.1/../../../../pic32mx/lib\libpic32.a(default-on-bootstrap.o)
                              C:\Users\aryll\AppData\Local\Temp\ccKXWNGz.o (_on_bootstrap)
c:/program files/microchip/xc32/v4.60/bin/bin/../../lib/gcc/pic32mx/8.3.1/../../../../pic32mx/lib\libpic32.a(default-nmi-handler.o)
                              C:\Users\aryll\AppData\Local\Temp\ccKXWNGz.o (_nmi_handler)
c:/program files/microchip/xc32/v4.60/bin/bin/../../lib/gcc/pic32mx/8.3.1/../../../../pic32mx/lib\libpic32.a(pic32_data_init_core.o)
                              C:\Users\aryll\AppData\Local\Temp\ccKXWNGz.o (__pic32_data_init)
c:/program files/microchip/xc32/v4.60/bin/bin/../../lib/gcc/pic32mx/8.3.1/../../../../pic32mx/lib\libpic32.a(general-exception.o)
                              C:\Users\aryll\AppData\Local\Temp\ccKXWNGz.o (_general_exception_context)
c:/program files/microchip/xc32/v4.60/bin/bin/../../lib/gcc/pic32mx/8.3.1/../../../../pic32mx/lib\libpic32.a(vector0.o)
                              C:\Users\aryll\AppData\Local\Temp\cci6AvUz.o (__vector_dispatch_0)
c:/program files/microchip/xc32/v4.60/bin/bin/../../lib/gcc/pic32mx/8.3.1/../../../../pic32mx/lib\libpic32.a(vector2.o)
                              C:\Users\aryll\AppData\Local\Temp\cci6AvUz.o (__vector_dispatch_2)
c:/program files/microchip/xc32/v4.60/bin/bin/../../lib/gcc/pic32mx/8.3.1/../../../../pic32mx/lib\libpic32.a(vector3.o)
                              C:\Users\aryll\AppData\Local\Temp\cci6AvUz.o (__vector_dispatch_3)
c:/program files/microchip/xc32/v4.60/bin/bin/../../lib/gcc/pic32mx/8.3.1/../../../../pic32mx/lib\libpic32.a(vector5.o)
                              C:\Users\aryll\AppData\Local\Temp\cci6AvUz.o (__vector_dispatch_5)
c:/program files/microchip/xc32/v4.60/bin/bin/../../lib/gcc/pic32mx/8.3.1/../../../../pic32mx/lib\libpic32.a(vector6.o)
                              C:\Users\aryll\AppData\Local\Temp\cci6AvUz.o (__vector_dispatch_6)
c:/program files/microchip/xc32/v4.60/bin/bin/../../lib/gcc/pic32mx/8.3.1/../../../../pic32mx/lib\libpic32.a(vector7.o)
                              C:\Users\aryll\AppData\Local\Temp\cci6AvUz.o (__vector_dispatch_7)
c:/program files/microchip/xc32/v4.60/bin/bin/../../lib/gcc/pic32mx/8.3.1/../../../../pic32mx/lib\libpic32.a(vector8.o)
                              C:\Users\aryll\AppData\Local\Temp\cci6AvUz.o (__vector_dispatch_8)
c:/program files/microchip/xc32/v4.60/bin/bin/../../lib/gcc/pic32mx/8.3.1/../../../../pic32mx/lib\libpic32.a(vector9.o)
                              C:\Users\aryll\AppData\Local\Temp\cci6AvUz.o (__vector_dispatch_9)
c:/program files/microchip/xc32/v4.60/bin/bin/../../lib/gcc/pic32mx/8.3.1/../../../../pic32mx/lib\libpic32.a(vector10.o)
                              C:\Users\aryll\AppData\Local\Temp\cci6AvUz.o (__vector_dispatch_10)
c:/program files/microchip/xc32/v4.60/bin/bin/../../lib/gcc/pic32mx/8.3.1/../../../../pic32mx/lib\libpic32.a(vector11.o)
                              C:\Users\aryll\AppData\Local\Temp\cci6AvUz.o (__vector_dispatch_11)
c:/program files/microchip/xc32/v4.60/bin/bin/../../lib/gcc/pic32mx/8.3.1/../../../../pic32mx/lib\libpic32.a(vector12.o)
                              C:\Users\aryll\AppData\Local\Temp\cci6AvUz.o (__vector_dispatch_12)
c:/program files/microchip/xc32/v4.60/bin/bin/../../lib/gcc/pic32mx/8.3.1/../../../../pic32mx/lib\libpic32.a(vector13.o)
                              C:\Users\aryll\AppData\Local\Temp\cci6AvUz.o (__vector_dispatch_13)
c:/program files/microchip/xc32/v4.60/bin/bin/../../lib/gcc/pic32mx/8.3.1/../../../../pic32mx/lib\libpic32.a(vector14.o)
                              C:\Users\aryll\AppData\Local\Temp\cci6AvUz.o (__vector_dispatch_14)
c:/program files/microchip/xc32/v4.60/bin/bin/../../lib/gcc/pic32mx/8.3.1/../../../../pic32mx/lib\libpic32.a(vector15.o)
                              C:\Users\aryll\AppData\Local\Temp\cci6AvUz.o (__vector_dispatch_15)
c:/program files/microchip/xc32/v4.60/bin/bin/../../lib/gcc/pic32mx/8.3.1/../../../../pic32mx/lib\libpic32.a(vector16.o)
                              C:\Users\aryll\AppData\Local\Temp\cci6AvUz.o (__vector_dispatch_16)
c:/program files/microchip/xc32/v4.60/bin/bin/../../lib/gcc/pic32mx/8.3.1/../../../../pic32mx/lib\libpic32.a(vector17.o)
                              C:\Users\aryll\AppData\Local\Temp\cci6AvUz.o (__vector_dispatch_17)
c:/program files/microchip/xc32/v4.60/bin/bin/../../lib/gcc/pic32mx/8.3.1/../../../../pic32mx/lib\libpic32.a(vector18.o)
                              C:\Users\aryll\AppData\Local\Temp\cci6AvUz.o (__vector_dispatch_18)
c:/program files/microchip/xc32/v4.60/bin/bin/../../lib/gcc/pic32mx/8.3.1/../../../../pic32mx/lib\libpic32.a(vector19.o)
                              C:\Users\aryll\AppData\Local\Temp\cci6AvUz.o (__vector_dispatch_19)
c:/program files/microchip/xc32/v4.60/bin/bin/../../lib/gcc/pic32mx/8.3.1/../../../../pic32mx/lib\libpic32.a(vector20.o)
                              C:\Users\aryll\AppData\Local\Temp\cci6AvUz.o (__vector_dispatch_20)
c:/program files/microchip/xc32/v4.60/bin/bin/../../lib/gcc/pic32mx/8.3.1/../../../../pic32mx/lib\libpic32.a(vector21.o)
                              C:\Users\aryll\AppData\Local\Temp\cci6AvUz.o (__vector_dispatch_21)
c:/program files/microchip/xc32/v4.60/bin/bin/../../lib/gcc/pic32mx/8.3.1/../../../../pic32mx/lib\libpic32.a(vector22.o)
                              C:\Users\aryll\AppData\Local\Temp\cci6AvUz.o (__vector_dispatch_22)
c:/program files/microchip/xc32/v4.60/bin/bin/../../lib/gcc/pic32mx/8.3.1/../../../../pic32mx/lib\libpic32.a(vector23.o)
                              C:\Users\aryll\AppData\Local\Temp\cci6AvUz.o (__vector_dispatch_23)
c:/program files/microchip/xc32/v4.60/bin/bin/../../lib/gcc/pic32mx/8.3.1/../../../../pic32mx/lib\libpic32.a(vector24.o)
                              C:\Users\aryll\AppData\Local\Temp\cci6AvUz.o (__vector_dispatch_24)
c:/program files/microchip/xc32/v4.60/bin/bin/../../lib/gcc/pic32mx/8.3.1/../../../../pic32mx/lib\libpic32.a(vector25.o)
                              C:\Users\aryll\AppData\Local\Temp\cci6AvUz.o (__vector_dispatch_25)
c:/program files/microchip/xc32/v4.60/bin/bin/../../lib/gcc/pic32mx/8.3.1/../../../../pic32mx/lib\libpic32.a(vector26.o)
                              C:\Users\aryll\AppData\Local\Temp\cci6AvUz.o (__vector_dispatch_26)
c:/program files/microchip/xc32/v4.60/bin/bin/../../lib/gcc/pic32mx/8.3.1/../../../../pic32mx/lib\libpic32.a(vector27.o)
                              C:\Users\aryll\AppData\Local\Temp\cci6AvUz.o (__vector_dispatch_27)
c:/program files/microchip/xc32/v4.60/bin/bin/../../lib/gcc/pic32mx/8.3.1/../../../../pic32mx/lib\libpic32.a(vector28.o)
                              C:\Users\aryll\AppData\Local\Temp\cci6AvUz.o (__vector_dispatch_28)
c:/program files/microchip/xc32/v4.60/bin/bin/../../lib/gcc/pic32mx/8.3.1/../../../../pic32mx/lib\libpic32.a(vector29.o)
                              C:\Users\aryll\AppData\Local\Temp\cci6AvUz.o (__vector_dispatch_29)
c:/program files/microchip/xc32/v4.60/bin/bin/../../lib/gcc/pic32mx/8.3.1/../../../../pic32mx/lib\libpic32.a(vector31.o)
                              C:\Users\aryll\AppData\Local\Temp\cci6AvUz.o (__vector_dispatch_31)
c:/program files/microchip/xc32/v4.60/bin/bin/../../lib/gcc/pic32mx/8.3.1/../../../../pic32mx/lib\libpic32.a(vector32.o)
                              C:\Users\aryll\AppData\Local\Temp\cci6AvUz.o (__vector_dispatch_32)
c:/program files/microchip/xc32/v4.60/bin/bin/../../lib/gcc/pic32mx/8.3.1/../../../../pic32mx/lib\libpic32.a(vector33.o)
                              C:\Users\aryll\AppData\Local\Temp\cci6AvUz.o (__vector_dispatch_33)
c:/program files/microchip/xc32/v4.60/bin/bin/../../lib/gcc/pic32mx/8.3.1/../../../../pic32mx/lib\libpic32.a(vector34.o)
                              C:\Users\aryll\AppData\Local\Temp\cci6AvUz.o (__vector_dispatch_34)
c:/program files/microchip/xc32/v4.60/bin/bin/../../lib/gcc/pic32mx/8.3.1/../../../../pic32mx/lib\libpic32.a(vector35.o)
                              C:\Users\aryll\AppData\Local\Temp\cci6AvUz.o (__vector_dispatch_35)
c:/program files/microchip/xc32/v4.60/bin/bin/../../lib/gcc/pic32mx/8.3.1/../../../../pic32mx/lib\libpic32.a(vector36.o)
                              C:\Users\aryll\AppData\Local\Temp\cci6AvUz.o (__vector_dispatch_36)
c:/program files/microchip/xc32/v4.60/bin/bin/../../lib/gcc/pic32mx/8.3.1/../../../../pic32mx/lib\libpic32.a(vector37.o)
                              C:\Users\aryll\AppData\Local\Temp\cci6AvUz.o (__vector_dispatch_37)
c:/program files/microchip/xc32/v4.60/bin/bin/../../lib/gcc/pic32mx/8.3.1/../../../../pic32mx/lib\libpic32.a(vector38.o)
                              C:\Users\aryll\AppData\Local\Temp\cci6AvUz.o (__vector_dispatch_38)
c:/program files/microchip/xc32/v4.60/bin/bin/../../lib/gcc/pic32mx/8.3.1/../../../../pic32mx/lib\libpic32.a(vector39.o)
                              C:\Users\aryll\AppData\Local\Temp\cci6AvUz.o (__vector_dispatch_39)
c:/program files/microchip/xc32/v4.60/bin/bin/../../lib/gcc/pic32mx/8.3.1/../../../../pic32mx/lib\libpic32.a(vector40.o)
                              C:\Users\aryll\AppData\Local\Temp\cci6AvUz.o (__vector_dispatch_40)
c:/program files/microchip/xc32/v4.60/bin/bin/../../lib/gcc/pic32mx/8.3.1/../../../../pic32mx/lib\libpic32.a(vector41.o)
                              C:\Users\aryll\AppData\Local\Temp\cci6AvUz.o (__vector_dispatch_41)
c:/program files/microchip/xc32/v4.60/bin/bin/../../lib/gcc/pic32mx/8.3.1/../../../../pic32mx/lib\libpic32.a(vector42.o)
                              C:\Users\aryll\AppData\Local\Temp\cci6AvUz.o (__vector_dispatch_42)
c:/program files/microchip/xc32/v4.60/bin/bin/../../lib/gcc/pic32mx/8.3.1/../../../../pic32mx/lib\libpic32.a(vector43.o)
                              C:\Users\aryll\AppData\Local\Temp\cci6AvUz.o (__vector_dispatch_43)
c:/program files/microchip/xc32/v4.60/bin/bin/../../lib/gcc/pic32mx/8.3.1/../../../../pic32mx/lib\libpic32.a(defaultinterrupt.o)
                              c:/program files/microchip/xc32/v4.60/bin/bin/../../lib/gcc/pic32mx/8.3.1/../../../../pic32mx/lib\libpic32.a(vector0.o) (_DefaultInterrupt)
c:/program files/microchip/xc32/v4.60/bin/bin/../../lib/gcc/pic32mx/8.3.1/../../../../pic32mx/lib\libc-size-musl.a(memcmp.o)
                              build/default/production/_ext/1360937237/app.o (memcmp)
c:/program files/microchip/xc32/v4.60/bin/bin/../../lib/gcc/pic32mx/8.3.1/../../../../pic32mx/lib\libc-size-musl.a(memcpy.o)
                              build/default/production/_ext/308758920/usb_device.o (memcpy)
c:/program files/microchip/xc32/v4.60/bin/bin/../../lib/gcc/pic32mx/8.3.1/../../../../pic32mx/lib\libc-size-musl.a(memset.o)
                              build/default/production/_ext/404212886/FreeRTOS_tasks.o (memset)

Optional file libmchp_peripheral.a not found

Optional file libmchp_peripheral_32MX270F256B.a not found
c:/program files/microchip/xc32/v4.60/bin/bin/../../lib/gcc/pic32mx/8.3.1/../../../../pic32mx/lib\libpic32.a(pic32_data_init_clear.o)
                              (__dinit_clear_needed)
c:/program files/microchip/xc32/v4.60/bin/bin/../../lib/gcc/pic32mx/8.3.1/../../../../pic32mx/lib\libpic32.a(pic32_data_init_copy.o)
                              (__dinit_copy_needed)

Microchip PIC32 Memory-Usage Report

kseg0 Program-Memory Usage
section                    address  length [bytes]      (dec)  Description
-------                 ----------  -------------------------  -----------
.text.F_DRV_USBFS_DEVIC 0x9d000000          0x654        1620   
.text.F_USB_DEVICE_HID_ 0x9d000654          0x4bc        1212   
.text                   0x9d000b10          0x454        1108  App's exec code 
.text.xTaskCreate       0x9d000f64          0x308         776   
.text.APP_Tasks         0x9d00126c          0x2c4         708   
.text.F_USB_DEVICE_Even 0x9d001530          0x230         560   
.text.xQueueSemaphoreTa 0x9d001760          0x228         552   
.text.F_USB_DEVICE_Proc 0x9d001988          0x214         532   
.text.xTaskIncrementTic 0x9d001b9c          0x20c         524   
.text.DRV_USBFS_DEVICE_ 0x9d001da8          0x208         520   
.text.F_USB_DEVICE_Proc 0x9d001fb0          0x200         512   
.text.F_USB_DEVICE_Cont 0x9d0021b0          0x1f4         500   
.text.xQueueGenericSend 0x9d0023a4          0x1f0         496   
.text.xTaskResumeAll    0x9d002594          0x1e0         480   
.USB_1_Handler_vector_t 0x9d002774          0x1b4         436   
.dinit                  0x9d002928          0x1b0         432   
.text.DRV_USBFS_DEVICE_ 0x9d002ad8          0x1a4         420   
.text.USB_DEVICE_HID_Re 0x9d002c7c          0x1a0         416   
.text.DRV_USBFS_DEVICE_ 0x9d002e1c          0x198         408   
.text.DRV_USBFS_DEVICE_ 0x9d002fb4          0x194         404   
.text.F_USB_DEVICE_Ep0R 0x9d003148          0x180         384   
.text.DRV_USBFS_Initial 0x9d0032c8          0x16c         364   
.text.xTaskPriorityInhe 0x9d003434          0x160         352   
.text.F_USB_DEVICE_HID_ 0x9d003594          0x15c         348   
.text.xTaskRemoveFromEv 0x9d0036f0          0x158         344   
.text.DRV_USBFS_DEVICE_ 0x9d003848          0x140         320   
.text.USB_DEVICE_Initia 0x9d003988          0x13c         316   
.text.vTaskPriorityDisi 0x9d003ac4          0x138         312   
.text.USB_DEVICE_Tasks  0x9d003bfc          0x134         308   
.text.prvAddCurrentTask 0x9d003d30          0x134         308   
.text.DRV_USBFS_DEVICE_ 0x9d003e64          0x124         292   
.text.vTaskSwitchContex 0x9d003f88          0x124         292   
.text.APP_USBDeviceEven 0x9d0040ac          0x11c         284   
.text.DRV_USBFS_DEVICE_ 0x9d0041c8          0x114         276   
.text.xTaskPriorityDisi 0x9d0042dc          0x10c         268   
.text.prvUnlockQueue    0x9d0043e8          0x104         260   
.text.F_USB_DEVICE_Proc 0x9d0044ec          0x100         256   
.text.prvCopyDataToQueu 0x9d0045ec           0xfc         252   
.text.pvPortMalloc      0x9d0046e8           0xf8         248   
.text.F_USB_DEVICE_Conf 0x9d0047e0           0xf4         244   
.text.xQueueGenericRese 0x9d0048d4           0xf0         240   
.text.F_DRV_USBFS_DEVIC 0x9d0049c4           0xe4         228   
.text.F_USB_DEVICE_HID_ 0x9d004aa8           0xdc         220   
.text.APP_USBDeviceHIDE 0x9d004b84           0xdc         220   
.text.general_exception 0x9d004c60           0xdc         220   
.text.F_USB_DEVICE_GetS 0x9d004d3c           0xd0         208   
.text.F_USB_DEVICE_Ep0T 0x9d004e0c           0xcc         204   
.text.F_USB_DEVICE_HID_ 0x9d004ed8           0xcc         204   
.text.vTaskStartSchedul 0x9d004fa4           0xb0         176   
.text.F_USB_DEVICE_DeIn 0x9d005054           0xac         172   
.text.xTaskCheckForTime 0x9d005100           0xac         172   
.text.F_USB_DEVICE_Forw 0x9d0051ac           0xa0         160   
.text.DRV_USBFS_Tasks_I 0x9d00524c           0x94         148   
.text.DRV_USBFS_DEVICE_ 0x9d0052e0           0x94         148   
.text.SYS_Initialize    0x9d005374           0x90         144   
.text.xQueueGenericCrea 0x9d005404           0x88         136   
.text.prvCheckTasksWait 0x9d00548c           0x88         136   
.text.USB_DEVICE_Contro 0x9d005514           0x84         132   
.text.F_USB_DEVICE_GetF 0x9d005598           0x80         128   
.text.F_USB_DEVICE_Find 0x9d005618           0x7c         124   
.text.USB_DEVICE_Contro 0x9d005694           0x7c         124   
.text                   0x9d005710           0x7c         124  App's exec code 
.text.F_DRV_USBFS_DEVIC 0x9d00578c           0x74         116   
.text.SYS_Tasks         0x9d005800           0x74         116   
.text.DRV_USBFS_DEVICE_ 0x9d005874           0x70         112   
.text.vApplicationSetup 0x9d0058e4           0x6c         108   
.text.DRV_USBFS_ClientE 0x9d005950           0x68         104   
.text.APP_Initialize    0x9d0059b8           0x64         100   
.text.vTaskExitCritical 0x9d005a1c           0x60          96   
.text.CLK_Initialize    0x9d005a7c           0x5c          92   
.text.xPortStartSchedul 0x9d005ad8           0x5c          92   
.text.SYS_INT_SourceDis 0x9d005b34           0x58          88   
.text.USB_DEVICE_Endpoi 0x9d005b8c           0x58          88   
.text.USB_DEVICE_EventH 0x9d005be4           0x58          88   
.text.xQueueCreateMutex 0x9d005c3c           0x58          88   
.text.vListInsert       0x9d005c94           0x58          88   
.text.DRV_USBFS_DEVICE_ 0x9d005cec           0x54          84   
.text.DRV_USBFS_DEVICE_ 0x9d005d40           0x54          84   
.text.F_USB_DEVICE_Redi 0x9d005d94           0x54          84   
.text.USB_DEVICE_IRPSub 0x9d005de8           0x54          84   
.text.pxPortInitialiseS 0x9d005e3c           0x54          84   
.text.vPortIncrementTic 0x9d005e90           0x54          84   
.text.vTaskDelay        0x9d005ee4           0x54          84   
.text.main_entry        0x9d005f38           0x54          84   
.text.USB_DEVICE_Detach 0x9d005f8c           0x50          80   
.text.blink             0x9d005fdc           0x50          80   
.text.OSAL_MUTEX_Create 0x9d00602c           0x4c          76   
.text.USB_DEVICE_Open   0x9d006078           0x4c          76   
.text.OSAL_CRIT_Enter   0x9d0060c4           0x48          72   
.text.USB_DEVICE_Attach 0x9d00610c           0x48          72   
.text.vTaskEnterCritica 0x9d006154           0x48          72   
.vector_default         0x9d00619c           0x48          72   
.text.DRV_USBFS_Open    0x9d0061e4           0x44          68   
.text.OSAL_CRIT_Leave   0x9d006228           0x44          68   
.text.OSAL_MUTEX_Unlock 0x9d00626c           0x44          68   
.text.USB_DEVICE_Endpoi 0x9d0062b0           0x44          68   
.text.USB_DEVICE_IRPCan 0x9d0062f4           0x44          68   
.text                   0x9d006338           0x44          68  App's exec code 
.text.OSAL_MUTEX_Lock   0x9d00637c           0x40          64   
.text.uxListRemove      0x9d0063bc           0x40          64   
.text.prvIdleTask       0x9d0063fc           0x40          64   
.text.F_USB_DEVICE_HID_ 0x9d00643c           0x38          56   
.text.uxPortSetInterrup 0x9d006474           0x38          56   
.text.vTaskPlaceOnEvent 0x9d0064ac           0x38          56   
.text.memcmp            0x9d0064e4           0x38          56   
.rodata.usbDevInitData  0x9d00651c           0x34          52   
.rodata.hid_rpt0        0x9d006550           0x34          52   
.text.prvIsQueueEmpty   0x9d006584           0x34          52   
.text.prvResetNextTaskU 0x9d0065b8           0x34          52   
.text.DRV_USBFS_DEVICE_ 0x9d0065ec           0x30          48   
.text.DRV_USBFS_Close   0x9d00661c           0x2c          44   
.text.F_DRV_USBFS_DEVIC 0x9d006648           0x2c          44   
.text.USB_DEVICE_HID_Ev 0x9d006674           0x2c          44   
.rodata.usbMasterDescri 0x9d0066a0           0x2c          44   
.rodata.fullSpeedConfig 0x9d0066cc           0x2c          44   
.rodata.drvUSBFSInit    0x9d0066f8           0x2c          44   
.text.memcpy            0x9d006724           0x2c          44   
.text.DRV_USBFS_DEVICE_ 0x9d006750           0x28          40   
.text.DRV_USBFS_DEVICE_ 0x9d006778           0x28          40   
.text.DRV_USBFS_DEVICE_ 0x9d0067a0           0x28          40   
.text.EVIC_SourceEnable 0x9d0067c8           0x28          40   
.text.EVIC_SourceDisabl 0x9d0067f0           0x28          40   
.text.EVIC_SourceStatus 0x9d006818           0x28          40   
.text.EVIC_INT_Restore  0x9d006840           0x28          40   
.text.memset            0x9d006868           0x28          40   
.text.EVIC_SourceIsEnab 0x9d006890           0x24          36   
.text.F_USB_DEVICE_Clie 0x9d0068b4           0x24          36   
.text.vApplicationStack 0x9d0068d8           0x24          36   
.text.vApplicationMallo 0x9d0068fc           0x24          36   
.text.prvTaskExitError  0x9d006920           0x24          36   
.text.MOUSE_ReportCreat 0x9d006944           0x24          36   
.text.EVIC_Initialize   0x9d006968           0x20          32   
.rodata.sd002           0x9d006988           0x20          32   
.text.F_USB_DEVICE_Task 0x9d0069a8           0x20          32   
.rodata.SYS_Tasks.str1. 0x9d0069c8           0x20          32   
.text.vListInitialise   0x9d0069e8           0x20          32   
.text.pvTaskIncrementMu 0x9d006a08           0x20          32   
.text.main              0x9d006a28           0x20          32   
.text                   0x9d006a48           0x20          32  App's exec code 
.text.DRV_USBFS_USB_Han 0x9d006a68           0x1c          28   
.text.USB_1_Handler     0x9d006a84           0x1c          28   
.MIPS.abiflags          0x9d006aa0           0x18          24   
.text.lAPP_Tasks        0x9d006ab8           0x18          24   
.text._general_exceptio 0x9d006ad0           0x18          24   
.text._bootstrap_except 0x9d006ae8           0x18          24   
.text                   0x9d006b00           0x30          48  App's exec code 
.rodata.hidFuncDriver   0x9d006b30           0x14          20   
.rodata.usbDeviceDescri 0x9d006b44           0x14          20   
.rodata.funcRegistratio 0x9d006b58           0x14          20   
.text.vTaskSuspendAll   0x9d006b6c           0x14          20   
.text.vTaskInternalSetT 0x9d006b80           0x14          20   
.rodata                 0x9d006b94           0x14          20  Read-only const 
.text.DRV_USBFS_DEVICE_ 0x9d006ba8           0x10          16   
.rodata.hidInit0        0x9d006bb8           0x10          16   
.text.vTaskMissedYield  0x9d006bc8           0x10          16   
.rodata.stringDescripto 0x9d006bd8            0xc          12   
.rodata.sd001           0x9d006be4            0xc          12   
.text.GPIO_Initialize   0x9d006bf0            0x8           8   
.text.vPortFree         0x9d006bf8            0x8           8   
.text.vListInitialiseIt 0x9d006c00            0x8           8   
.text._on_reset         0x9d006c08            0x8           8   
.text._on_bootstrap     0x9d006c10            0x8           8   
.rodata.sd000           0x9d006c18            0x4           4   
.rodata.fullSpeedConfig 0x9d006c1c            0x4           4   
.rodata.xISRStackTop    0x9d006c20            0x4           4   
      Total kseg0_program_mem used  :      0x6c24       27684  10.7% of 0x3f000

kseg0 Boot-Memory Usage
section                    address  length [bytes]      (dec)  Description
-------                 ----------  -------------------------  -----------
         Total kseg0_boot_mem used  :           0           0  

Exception-Memory Usage 
section                    address  length [bytes]      (dec)  Description
-------                 ----------  -------------------------  -----------
.app_excpt              0x9d03f180           0x10          16  General-Exception 
.vector_0               0x9d03f200            0x8           8  Interrupt Vector 0 
.vector_1               0x9d03f220            0x8           8  Interrupt Vector 1 
.vector_2               0x9d03f240            0x8           8  Interrupt Vector 2 
.vector_3               0x9d03f260            0x8           8  Interrupt Vector 3 
.vector_4               0x9d03f280            0x8           8  Interrupt Vector 4 
.vector_5               0x9d03f2a0            0x8           8  Interrupt Vector 5 
.vector_6               0x9d03f2c0            0x8           8  Interrupt Vector 6 
.vector_7               0x9d03f2e0            0x8           8  Interrupt Vector 7 
.vector_8               0x9d03f300            0x8           8  Interrupt Vector 8 
.vector_9               0x9d03f320            0x8           8  Interrupt Vector 9 
.vector_10              0x9d03f340            0x8           8  Interrupt Vector 10 
.vector_11              0x9d03f360            0x8           8  Interrupt Vector 11 
.vector_12              0x9d03f380            0x8           8  Interrupt Vector 12 
.vector_13              0x9d03f3a0            0x8           8  Interrupt Vector 13 
.vector_14              0x9d03f3c0            0x8           8  Interrupt Vector 14 
.vector_15              0x9d03f3e0            0x8           8  Interrupt Vector 15 
.vector_16              0x9d03f400            0x8           8  Interrupt Vector 16 
.vector_17              0x9d03f420            0x8           8  Interrupt Vector 17 
.vector_18              0x9d03f440            0x8           8  Interrupt Vector 18 
.vector_19              0x9d03f460            0x8           8  Interrupt Vector 19 
.vector_20              0x9d03f480            0x8           8  Interrupt Vector 20 
.vector_21              0x9d03f4a0            0x8           8  Interrupt Vector 21 
.vector_22              0x9d03f4c0            0x8           8  Interrupt Vector 22 
.vector_23              0x9d03f4e0            0x8           8  Interrupt Vector 23 
.vector_24              0x9d03f500            0x8           8  Interrupt Vector 24 
.vector_25              0x9d03f520            0x8           8  Interrupt Vector 25 
.vector_26              0x9d03f540            0x8           8  Interrupt Vector 26 
.vector_27              0x9d03f560            0x8           8  Interrupt Vector 27 
.vector_28              0x9d03f580            0x8           8  Interrupt Vector 28 
.vector_29              0x9d03f5a0            0x8           8  Interrupt Vector 29 
.vector_30              0x9d03f5c0           0x10          16  Interrupt Vector 30 
.vector_31              0x9d03f5e0            0x8           8  Interrupt Vector 31 
.vector_32              0x9d03f600            0x8           8  Interrupt Vector 32 
.vector_33              0x9d03f620            0x8           8  Interrupt Vector 33 
.vector_34              0x9d03f640            0x8           8  Interrupt Vector 34 
.vector_35              0x9d03f660            0x8           8  Interrupt Vector 35 
.vector_36              0x9d03f680            0x8           8  Interrupt Vector 36 
.vector_37              0x9d03f6a0            0x8           8  Interrupt Vector 37 
.vector_38              0x9d03f6c0            0x8           8  Interrupt Vector 38 
.vector_39              0x9d03f6e0            0x8           8  Interrupt Vector 39 
.vector_40              0x9d03f700            0x8           8  Interrupt Vector 40 
.vector_41              0x9d03f720            0x8           8  Interrupt Vector 41 
.vector_42              0x9d03f740            0x8           8  Interrupt Vector 42 
.vector_43              0x9d03f760            0x8           8  Interrupt Vector 43 
          Total exception_mem used  :       0x178         376  9.2% of 0x1000

kseg1 Boot-Memory Usage
section                    address  length [bytes]      (dec)  Description
-------                 ----------  -------------------------  -----------
.reset                  0xbfc00000          0x14c         332  Reset handler 
.bev_excpt              0xbfc00380           0x10          16  BEV-Exception 
         Total kseg1_boot_mem used  :       0x15c         348  29.8% of 0x490
        --------------------------------------------------------------------------
         Total Program Memory used  :      0x6ef8       28408  10.8% of 0x40490
        --------------------------------------------------------------------------


Data-Memory Usage
section                    address  length [bytes]      (dec)  Description
-------                 ----------  -------------------------  -----------
.sdata                  0xa0000000            0xc          12  Small init data 
.sbss                   0xa000000c           0x6c         108  Small uninit data 
.data.gDrvUSBFSDeviceIn 0xa0000078           0x50          80   
.data.uxTopUsedPriority 0xa00000c8            0x4           4   
.bss.ucHeap             0xa00000cc         0x6d60       28000   
.bss.xISRStack          0xa0006e30          0x800        2048   
.bss.pxReadyTasksLists  0xa0007630           0x64         100   
.bss.usbDeviceInstance  0xa0007694          0x100         256   
.bss.gUSBDeviceHIDIRP   0xa0007794           0x48          72   
.bss.xSuspendedTaskList 0xa00077dc           0x14          20   
.bss.endPointTable1     0xa0007800           0x60          96   
.bss.gDrvUSBGroup       0xa0007860           0xc8         200   
.bss.appData            0xa0007928           0x2c          44   
.bss.gUsbDeviceHidInsta 0xa0007954           0x28          40   
.bss.xTasksWaitingTermi 0xa000797c           0x14          20   
.bss.xPendingReadyList  0xa0007990           0x14          20   
.bss.xDelayedTaskList2  0xa00079a4           0x14          20   
.bss.xDelayedTaskList1  0xa00079b8           0x14          20   
         Total kseg0/kseg1 data_mem used  :      0x79b8       31160  47.5% of 0x10000
        --------------------------------------------------------------------------
            Total Data Memory used  :      0x79b8       31160  47.5% of 0x10000
        --------------------------------------------------------------------------


Dynamic Data-Memory Reservation
section                    address  length [bytes]      (dec)  Description
-------                 ----------  -------------------------  -----------
heap                    0xa00079d0          0x200         512  Reserved for heap 
stack                   0xa0007be8         0x8408       33800  Reserved for stack 

        --------------------------------------------------------------------------

Note: Microchip PIC32 Memory-Usage Report By Module might not be accurate when used in conjunction with LTO!
Microchip PIC32 Memory-Usage Report By Module

        text        data         bss         dec         hex    basename                    filename
--------------------------------------------------------------------------------
         256           0       28008       28264        6e68    heap_1.o                build/default/production/_ext/1665200909/heap_1.o
        5608           0         256        5864        16e8    usb_device.o            build/default/production/_ext/308758920/usb_device.o
        5260          80           0        5340        14dc    drv_usbfs_device.o      build/default/production/_ext/2128569739/drv_usbfs_device.o
        4652           4         260        4916        1334    FreeRTOS_tasks.o        build/default/production/_ext/404212886/FreeRTOS_tasks.o
        2520           0         121        2641         a51    usb_device_hid.o        build/default/production/_ext/308758920/usb_device_hid.o
         480           4        2052        2536         9e8    port.o                  build/default/production/_ext/951553248/port.o
        2076           0           0        2076         81c    queue.o                 build/default/production/_ext/404212886/queue.o
        1392           8          53        1453         5ad    app.o                   build/default/production/_ext/1360937237/app.o
        1108           0           0        1108         454    port_asm.o              build/default/production/_ext/951553248/port_asm.o
         756           0         200         956         3bc    drv_usbfs.o             build/default/production/_ext/2128569739/drv_usbfs.o
         452           0           0         452         1c4    interrupts_a.o          build/default/production/_ext/1171490990/interrupts_a.o
         448           0           0         448         1c0    ccKXWNGz.o              C:\Users\aryll\AppData\Local\Temp\ccKXWNGz.o
         432           0           0         432         1b0    data_init               data_init
         348           0           0         348         15c    osal_freertos.o         build/default/production/_ext/1529399856/osal_freertos.o
         312           0           0         312         138    usb_device_init_data.o  build/default/production/_ext/1171490990/usb_device_init_data.o
         204           0         104         308         134    initialization.o        build/default/production/_ext/1171490990/initialization.o
         228           0           0         228          e4    plib_evic.o             build/default/production/_ext/1865200349/plib_evic.o
         220           0           0         220          dc    general-exception.o     libpic32.a
         204           0           4         208          d0    tasks.o                 build/default/production/_ext/1171490990/tasks.o
         192           0           0         192          c0    list.o                  build/default/production/_ext/404212886/list.o
         144           0           0         144          90    pic32_data_init_core.o  libpic32.a
          92           0           0          92          5c    plib_clk.o              build/default/production/_ext/60165520/plib_clk.o
          88           0           0          88          58    sys_int.o               build/default/production/_ext/1881668453/sys_int.o
          72           0           0          72          48    defaultinterrupt.o      libpic32.a
          72           0           0          72          48    freertos_hooks.o        build/default/production/_ext/1171490990/freertos_hooks.o
          68           0           0          68          44    pic32_software_reset.o  c:/program files/microchip/xc32/v4.60/bin/bin/../../lib/gcc/pic32mx/8.3.1/../../../../pic32mx/lib\pic32_software_reset.o
          68           0           0          68          44    debug-exception-return.oc:/program files/microchip/xc32/v4.60/bin/bin/../../lib/gcc/pic32mx/8.3.1/../../../../pic32mx/lib\debug-exception-return.o
          56           0           0          56          38    memcmp.o                libc-size-musl.a
          48           0           0          48          30    exceptions.o            build/default/production/_ext/1171490990/exceptions.o
          44           0           0          44          2c    memcpy.o                libc-size-musl.a
          40           0           0          40          28    memset.o                libc-size-musl.a
          36           0           0          36          24    mouse.o                 build/default/production/_ext/1360937237/mouse.o
          32           0           0          32          20    main.o                  build/default/production/_ext/1360937237/main.o
          32           0           0          32          20    pic32_data_init_copy.o  libpic32.a
          28           0           0          28          1c    interrupts.o            build/default/production/_ext/1171490990/interrupts.o
          24           0           0          24          18    pic32_data_init_clear.o libpic32.a
          24           0           0          24          18    default-nmi-handler.o   libpic32.a
           8           0           0           8           8    vector13.o              libpic32.a
           8           0           0           8           8    vector12.o              libpic32.a
           8           0           0           8           8    vector11.o              libpic32.a
           8           0           0           8           8    vector10.o              libpic32.a
           8           0           0           8           8    vector9.o               libpic32.a
           8           0           0           8           8    vector8.o               libpic32.a
           8           0           0           8           8    vector7.o               libpic32.a
           8           0           0           8           8    vector6.o               libpic32.a
           8           0           0           8           8    vector5.o               libpic32.a
           8           0           0           8           8    vector3.o               libpic32.a
           8           0           0           8           8    vector2.o               libpic32.a
           8           0           0           8           8    vector0.o               libpic32.a
           8           0           0           8           8    vector14.o              libpic32.a
           8           0           0           8           8    vector15.o              libpic32.a
           8           0           0           8           8    vector16.o              libpic32.a
           8           0           0           8           8    default-on-bootstrap.o  libpic32.a
           8           0           0           8           8    default-on-reset.o      libpic32.a
           8           0           0           8           8    vector17.o              libpic32.a
           8           0           0           8           8    vector28.o              libpic32.a
           8           0           0           8           8    vector43.o              libpic32.a
           8           0           0           8           8    vector18.o              libpic32.a
           8           0           0           8           8    vector19.o              libpic32.a
           8           0           0           8           8    vector20.o              libpic32.a
           8           0           0           8           8    vector21.o              libpic32.a
           8           0           0           8           8    vector42.o              libpic32.a
           8           0           0           8           8    vector41.o              libpic32.a
           8           0           0           8           8    vector40.o              libpic32.a
           8           0           0           8           8    vector39.o              libpic32.a
           8           0           0           8           8    vector22.o              libpic32.a
           8           0           0           8           8    vector23.o              libpic32.a
           8           0           0           8           8    vector24.o              libpic32.a
           8           0           0           8           8    vector25.o              libpic32.a
           8           0           0           8           8    vector26.o              libpic32.a
           8           0           0           8           8    vector27.o              libpic32.a
           8           0           0           8           8    plib_gpio.o             build/default/production/_ext/1865254177/plib_gpio.o
           8           0           0           8           8    vector29.o              libpic32.a
           8           0           0           8           8    vector31.o              libpic32.a
           8           0           0           8           8    vector32.o              libpic32.a
           8           0           0           8           8    vector33.o              libpic32.a
           8           0           0           8           8    vector34.o              libpic32.a
           8           0           0           8           8    vector35.o              libpic32.a
           8           0           0           8           8    vector36.o              libpic32.a
           8           0           0           8           8    vector37.o              libpic32.a
           8           0           0           8           8    vector38.o              libpic32.a
           0           0           0           6           6    padding                 padding
--------------------------------------------------------------------------------
       28468          96       31058       59628        e8ec    dist/default/production/Mouse.X.production.elf


Discarded input sections

 .text          0x0000000000000000        0x0 c:/program files/microchip/xc32/v4.60/bin/bin/../../lib/gcc/pic32mx/8.3.1/../../../../pic32mx/lib\debug-exception-return.o
 .data          0x0000000000000000        0x0 c:/program files/microchip/xc32/v4.60/bin/bin/../../lib/gcc/pic32mx/8.3.1/../../../../pic32mx/lib\debug-exception-return.o
 .bss           0x0000000000000000        0x0 c:/program files/microchip/xc32/v4.60/bin/bin/../../lib/gcc/pic32mx/8.3.1/../../../../pic32mx/lib\debug-exception-return.o
 .xc_stack_usage.hdr
                0x0000000000000000        0xe c:/program files/microchip/xc32/v4.60/bin/bin/../../lib/gcc/pic32mx/8.3.1/../../../../pic32mx/lib\debug-exception-return.o
 .xc_stack_usage
                0x0000000000000000       0x1d c:/program files/microchip/xc32/v4.60/bin/bin/../../lib/gcc/pic32mx/8.3.1/../../../../pic32mx/lib\debug-exception-return.o
 .text          0x0000000000000000        0x0 build/default/production/_ext/2128569739/drv_usbfs.o
 .data          0x0000000000000000        0x0 build/default/production/_ext/2128569739/drv_usbfs.o
 .bss           0x0000000000000000        0x0 build/default/production/_ext/2128569739/drv_usbfs.o
 .reginfo       0x0000000000000000       0x18 build/default/production/_ext/2128569739/drv_usbfs.o
 .MIPS.abiflags
                0x0000000000000000       0x18 build/default/production/_ext/2128569739/drv_usbfs.o
 .text.DRV_USBFS_Deinitialize
                0x0000000000000000       0x80 build/default/production/_ext/2128569739/drv_usbfs.o
 .text.DRV_USBFS_Status
                0x0000000000000000       0x18 build/default/production/_ext/2128569739/drv_usbfs.o
 .text.DRV_USBFS_Tasks
                0x0000000000000000        0x8 build/default/production/_ext/2128569739/drv_usbfs.o
 .text          0x0000000000000000        0x0 build/default/production/_ext/2128569739/drv_usbfs_device.o
 .data          0x0000000000000000        0x0 build/default/production/_ext/2128569739/drv_usbfs_device.o
 .bss           0x0000000000000000        0x0 build/default/production/_ext/2128569739/drv_usbfs_device.o
 .reginfo       0x0000000000000000       0x18 build/default/production/_ext/2128569739/drv_usbfs_device.o
 .MIPS.abiflags
                0x0000000000000000       0x18 build/default/production/_ext/2128569739/drv_usbfs_device.o
 .text.F_DRV_USBFS_DEVICE_EndpointObjectEnable
                0x0000000000000000       0x28 build/default/production/_ext/2128569739/drv_usbfs_device.o
 .text          0x0000000000000000        0x0 build/default/production/_ext/1529399856/osal_freertos.o
 .data          0x0000000000000000        0x0 build/default/production/_ext/1529399856/osal_freertos.o
 .bss           0x0000000000000000        0x0 build/default/production/_ext/1529399856/osal_freertos.o
 .reginfo       0x0000000000000000       0x18 build/default/production/_ext/1529399856/osal_freertos.o
 .MIPS.abiflags
                0x0000000000000000       0x18 build/default/production/_ext/1529399856/osal_freertos.o
 .text.OSAL_SEM_Create
                0x0000000000000000       0xa8 build/default/production/_ext/1529399856/osal_freertos.o
 .text.OSAL_SEM_Delete
                0x0000000000000000       0x30 build/default/production/_ext/1529399856/osal_freertos.o
 .text.OSAL_SEM_Pend
                0x0000000000000000       0x40 build/default/production/_ext/1529399856/osal_freertos.o
 .text.OSAL_SEM_Post
                0x0000000000000000       0x44 build/default/production/_ext/1529399856/osal_freertos.o
 .text.OSAL_SEM_PostISR
                0x0000000000000000       0x58 build/default/production/_ext/1529399856/osal_freertos.o
 .text.OSAL_SEM_GetCount
                0x0000000000000000       0x28 build/default/production/_ext/1529399856/osal_freertos.o
 .text.OSAL_MUTEX_Delete
                0x0000000000000000       0x4c build/default/production/_ext/1529399856/osal_freertos.o
 .text.OSAL_Malloc
                0x0000000000000000       0x1c build/default/production/_ext/1529399856/osal_freertos.o
 .text.OSAL_Free
                0x0000000000000000       0x1c build/default/production/_ext/1529399856/osal_freertos.o
 .text.OSAL_Initialize
                0x0000000000000000        0x8 build/default/production/_ext/1529399856/osal_freertos.o
 .text          0x0000000000000000        0x0 build/default/production/_ext/60165520/plib_clk.o
 .data          0x0000000000000000        0x0 build/default/production/_ext/60165520/plib_clk.o
 .bss           0x0000000000000000        0x0 build/default/production/_ext/60165520/plib_clk.o
 .reginfo       0x0000000000000000       0x18 build/default/production/_ext/60165520/plib_clk.o
 .MIPS.abiflags
                0x0000000000000000       0x18 build/default/production/_ext/60165520/plib_clk.o
 .text          0x0000000000000000        0x0 build/default/production/_ext/1865200349/plib_evic.o
 .data          0x0000000000000000        0x0 build/default/production/_ext/1865200349/plib_evic.o
 .bss           0x0000000000000000        0x0 build/default/production/_ext/1865200349/plib_evic.o
 .reginfo       0x0000000000000000       0x18 build/default/production/_ext/1865200349/plib_evic.o
 .MIPS.abiflags
                0x0000000000000000       0x18 build/default/production/_ext/1865200349/plib_evic.o
 .text.EVIC_SourceStatusGet
                0x0000000000000000       0x24 build/default/production/_ext/1865200349/plib_evic.o
 .text.EVIC_SourceStatusSet
                0x0000000000000000       0x28 build/default/production/_ext/1865200349/plib_evic.o
 .text.EVIC_INT_Enable
                0x0000000000000000       0x18 build/default/production/_ext/1865200349/plib_evic.o
 .text.EVIC_INT_Disable
                0x0000000000000000       0x20 build/default/production/_ext/1865200349/plib_evic.o
 .text.EVIC_INT_SourceDisable
                0x0000000000000000       0x58 build/default/production/_ext/1865200349/plib_evic.o
 .text.EVIC_INT_SourceRestore
                0x0000000000000000       0x2c build/default/production/_ext/1865200349/plib_evic.o
 .text          0x0000000000000000        0x0 build/default/production/_ext/1865254177/plib_gpio.o
 .data          0x0000000000000000        0x0 build/default/production/_ext/1865254177/plib_gpio.o
 .bss           0x0000000000000000        0x0 build/default/production/_ext/1865254177/plib_gpio.o
 .reginfo       0x0000000000000000       0x18 build/default/production/_ext/1865254177/plib_gpio.o
 .MIPS.abiflags
                0x0000000000000000       0x18 build/default/production/_ext/1865254177/plib_gpio.o
 .text.GPIO_PortRead
                0x0000000000000000       0x1c build/default/production/_ext/1865254177/plib_gpio.o
 .text.GPIO_PortWrite
                0x0000000000000000       0x2c build/default/production/_ext/1865254177/plib_gpio.o
 .text.GPIO_PortLatchRead
                0x0000000000000000       0x1c build/default/production/_ext/1865254177/plib_gpio.o
 .text.GPIO_PortSet
                0x0000000000000000       0x1c build/default/production/_ext/1865254177/plib_gpio.o
 .text.GPIO_PortClear
                0x0000000000000000       0x1c build/default/production/_ext/1865254177/plib_gpio.o
 .text.GPIO_PortToggle
                0x0000000000000000       0x1c build/default/production/_ext/1865254177/plib_gpio.o
 .text.GPIO_PortInputEnable
                0x0000000000000000       0x1c build/default/production/_ext/1865254177/plib_gpio.o
 .text.GPIO_PortOutputEnable
                0x0000000000000000       0x1c build/default/production/_ext/1865254177/plib_gpio.o
 .text          0x0000000000000000        0x0 build/default/production/_ext/163028504/xc32_monitor.o
 .data          0x0000000000000000        0x0 build/default/production/_ext/163028504/xc32_monitor.o
 .bss           0x0000000000000000        0x0 build/default/production/_ext/163028504/xc32_monitor.o
 .reginfo       0x0000000000000000       0x18 build/default/production/_ext/163028504/xc32_monitor.o
 .MIPS.abiflags
                0x0000000000000000       0x18 build/default/production/_ext/163028504/xc32_monitor.o
 .text.read     0x0000000000000000        0x8 build/default/production/_ext/163028504/xc32_monitor.o
 .text.write    0x0000000000000000        0x8 build/default/production/_ext/163028504/xc32_monitor.o
 .text          0x0000000000000000        0x0 build/default/production/_ext/1881668453/sys_int.o
 .data          0x0000000000000000        0x0 build/default/production/_ext/1881668453/sys_int.o
 .bss           0x0000000000000000        0x0 build/default/production/_ext/1881668453/sys_int.o
 .reginfo       0x0000000000000000       0x18 build/default/production/_ext/1881668453/sys_int.o
 .MIPS.abiflags
                0x0000000000000000       0x18 build/default/production/_ext/1881668453/sys_int.o
 .text.SYS_INT_Enable
                0x0000000000000000       0x1c build/default/production/_ext/1881668453/sys_int.o
 .text.SYS_INT_Disable
                0x0000000000000000       0x1c build/default/production/_ext/1881668453/sys_int.o
 .text.SYS_INT_Restore
                0x0000000000000000       0x1c build/default/production/_ext/1881668453/sys_int.o
 .text.SYS_INT_SourceRestore
                0x0000000000000000       0x2c build/default/production/_ext/1881668453/sys_int.o
 .text          0x0000000000000000        0x0 build/default/production/_ext/308758920/usb_device.o
 .data          0x0000000000000000        0x0 build/default/production/_ext/308758920/usb_device.o
 .bss           0x0000000000000000        0x0 build/default/production/_ext/308758920/usb_device.o
 .reginfo       0x0000000000000000       0x18 build/default/production/_ext/308758920/usb_device.o
 .MIPS.abiflags
                0x0000000000000000       0x18 build/default/production/_ext/308758920/usb_device.o
 .text.USB_DEVICE_Status
                0x0000000000000000       0x2c build/default/production/_ext/308758920/usb_device.o
 .text.USB_DEVICE_Deinitialize
                0x0000000000000000       0x28 build/default/production/_ext/308758920/usb_device.o
 .text.USB_DEVICE_EndpointIsEnabled
                0x0000000000000000       0x44 build/default/production/_ext/308758920/usb_device.o
 .text.USB_DEVICE_EndpointStall
                0x0000000000000000       0x3c build/default/production/_ext/308758920/usb_device.o
 .text.USB_DEVICE_EndpointStallClear
                0x0000000000000000       0x3c build/default/production/_ext/308758920/usb_device.o
 .text.USB_DEVICE_EndpointIsStalled
                0x0000000000000000       0x44 build/default/production/_ext/308758920/usb_device.o
 .text.USB_DEVICE_IsSuspended
                0x0000000000000000       0x30 build/default/production/_ext/308758920/usb_device.o
 .text.USB_DEVICE_StateGet
                0x0000000000000000       0x30 build/default/production/_ext/308758920/usb_device.o
 .text.USB_DEVICE_Close
                0x0000000000000000       0x2c build/default/production/_ext/308758920/usb_device.o
 .text.USB_DEVICE_ClientStatusGet
                0x0000000000000000       0x2c build/default/production/_ext/308758920/usb_device.o
 .text.USB_DEVICE_ActiveConfigurationGet
                0x0000000000000000       0x2c build/default/production/_ext/308758920/usb_device.o
 .text.USB_DEVICE_ActiveSpeedGet
                0x0000000000000000       0x30 build/default/production/_ext/308758920/usb_device.o
 .text.USB_DEVICE_ControlReceive
                0x0000000000000000       0x4c build/default/production/_ext/308758920/usb_device.o
 .text.USB_DEVICE_PowerStateSet
                0x0000000000000000       0x38 build/default/production/_ext/308758920/usb_device.o
 .text.USB_DEVICE_RemoteWakeupStatusGet
                0x0000000000000000       0x2c build/default/production/_ext/308758920/usb_device.o
 .text.USB_DEVICE_RemoteWakeupStop
                0x0000000000000000       0x34 build/default/production/_ext/308758920/usb_device.o
 .text.USB_DEVICE_RemoteWakeupStart
                0x0000000000000000       0x34 build/default/production/_ext/308758920/usb_device.o
 .text.USB_DEVICE_IRPCancel
                0x0000000000000000       0x44 build/default/production/_ext/308758920/usb_device.o
 .text.F_USB_DEVICE_EndpointMutexCreateFunction
                0x0000000000000000       0x54 build/default/production/_ext/308758920/usb_device.o
 .text.F_USB_DEVICE_EndpointMutexDeleteFunction
                0x0000000000000000       0x34 build/default/production/_ext/308758920/usb_device.o
 .text.F_USB_DEVICE_GetStringDescriptorRequestProcessAdvanced
                0x0000000000000000       0xa8 build/default/production/_ext/308758920/usb_device.o
 .text.F_USB_DEVICE_Other_Speed_Descriptor_Request
                0x0000000000000000        0x8 build/default/production/_ext/308758920/usb_device.o
 .text          0x0000000000000000        0x0 build/default/production/_ext/308758920/usb_device_hid.o
 .data          0x0000000000000000        0x0 build/default/production/_ext/308758920/usb_device_hid.o
 .bss           0x0000000000000000        0x0 build/default/production/_ext/308758920/usb_device_hid.o
 .reginfo       0x0000000000000000       0x18 build/default/production/_ext/308758920/usb_device_hid.o
 .MIPS.abiflags
                0x0000000000000000       0x18 build/default/production/_ext/308758920/usb_device_hid.o
 .text.F_USB_DEVICE_HID_ReportReceiveCallBack
                0x0000000000000000       0xcc build/default/production/_ext/308758920/usb_device_hid.o
 .text.USB_DEVICE_HID_TransferCancel
                0x0000000000000000       0x88 build/default/production/_ext/308758920/usb_device_hid.o
 .text.USB_DEVICE_HID_ReportReceive
                0x0000000000000000      0x1a0 build/default/production/_ext/308758920/usb_device_hid.o
 .text          0x0000000000000000        0x0 build/default/production/_ext/1171490990/usb_device_init_data.o
 .data          0x0000000000000000        0x0 build/default/production/_ext/1171490990/usb_device_init_data.o
 .bss           0x0000000000000000        0x0 build/default/production/_ext/1171490990/usb_device_init_data.o
 .reginfo       0x0000000000000000       0x18 build/default/production/_ext/1171490990/usb_device_init_data.o
 .MIPS.abiflags
                0x0000000000000000       0x18 build/default/production/_ext/1171490990/usb_device_init_data.o
 .text          0x0000000000000000        0x0 build/default/production/_ext/1171490990/freertos_hooks.o
 .data          0x0000000000000000        0x0 build/default/production/_ext/1171490990/freertos_hooks.o
 .bss           0x0000000000000000        0x0 build/default/production/_ext/1171490990/freertos_hooks.o
 .reginfo       0x0000000000000000       0x18 build/default/production/_ext/1171490990/freertos_hooks.o
 .MIPS.abiflags
                0x0000000000000000       0x18 build/default/production/_ext/1171490990/freertos_hooks.o
 .text.vApplicationIdleHook
                0x0000000000000000        0x8 build/default/production/_ext/1171490990/freertos_hooks.o
 .text.vApplicationTickHook
                0x0000000000000000        0x8 build/default/production/_ext/1171490990/freertos_hooks.o
 .text.vAssertCalled
                0x0000000000000000       0x40 build/default/production/_ext/1171490990/freertos_hooks.o
 .text          0x0000000000000000        0x0 build/default/production/_ext/1171490990/initialization.o
 .data          0x0000000000000000        0x0 build/default/production/_ext/1171490990/initialization.o
 .bss           0x0000000000000000        0x0 build/default/production/_ext/1171490990/initialization.o
 .reginfo       0x0000000000000000       0x18 build/default/production/_ext/1171490990/initialization.o
 .MIPS.abiflags
                0x0000000000000000       0x18 build/default/production/_ext/1171490990/initialization.o
 .text          0x0000000000000000        0x0 build/default/production/_ext/1171490990/interrupts_a.o
 .data          0x0000000000000000        0x0 build/default/production/_ext/1171490990/interrupts_a.o
 .bss           0x0000000000000000        0x0 build/default/production/_ext/1171490990/interrupts_a.o
 .reginfo       0x0000000000000000       0x18 build/default/production/_ext/1171490990/interrupts_a.o
 .MIPS.abiflags
                0x0000000000000000       0x18 build/default/production/_ext/1171490990/interrupts_a.o
 .text          0x0000000000000000        0x0 build/default/production/_ext/1171490990/interrupts.o
 .data          0x0000000000000000        0x0 build/default/production/_ext/1171490990/interrupts.o
 .bss           0x0000000000000000        0x0 build/default/production/_ext/1171490990/interrupts.o
 .reginfo       0x0000000000000000       0x18 build/default/production/_ext/1171490990/interrupts.o
 .MIPS.abiflags
                0x0000000000000000       0x18 build/default/production/_ext/1171490990/interrupts.o
 .text          0x0000000000000000        0x0 build/default/production/_ext/1171490990/tasks.o
 .data          0x0000000000000000        0x0 build/default/production/_ext/1171490990/tasks.o
 .bss           0x0000000000000000        0x0 build/default/production/_ext/1171490990/tasks.o
 .reginfo       0x0000000000000000       0x18 build/default/production/_ext/1171490990/tasks.o
 .MIPS.abiflags
                0x0000000000000000       0x18 build/default/production/_ext/1171490990/tasks.o
 .text          0x0000000000000000        0x0 build/default/production/_ext/1171490990/exceptions.o
 .data          0x0000000000000000        0x0 build/default/production/_ext/1171490990/exceptions.o
 .bss           0x0000000000000000        0x0 build/default/production/_ext/1171490990/exceptions.o
 .reginfo       0x0000000000000000       0x18 build/default/production/_ext/1171490990/exceptions.o
 .MIPS.abiflags
                0x0000000000000000       0x18 build/default/production/_ext/1171490990/exceptions.o
 .text          0x0000000000000000        0x0 build/default/production/_ext/1665200909/heap_1.o
 .data          0x0000000000000000        0x0 build/default/production/_ext/1665200909/heap_1.o
 .bss           0x0000000000000000        0x0 build/default/production/_ext/1665200909/heap_1.o
 .reginfo       0x0000000000000000       0x18 build/default/production/_ext/1665200909/heap_1.o
 .MIPS.abiflags
                0x0000000000000000       0x18 build/default/production/_ext/1665200909/heap_1.o
 .text.vPortInitialiseBlocks
                0x0000000000000000        0x8 build/default/production/_ext/1665200909/heap_1.o
 .text.xPortGetFreeHeapSize
                0x0000000000000000       0x10 build/default/production/_ext/1665200909/heap_1.o
 .text.vPortHeapResetState
                0x0000000000000000        0x8 build/default/production/_ext/1665200909/heap_1.o
 .text          0x0000000000000000        0x0 build/default/production/_ext/951553248/port.o
 .data          0x0000000000000000        0x0 build/default/production/_ext/951553248/port.o
 .bss           0x0000000000000000        0x0 build/default/production/_ext/951553248/port.o
 .reginfo       0x0000000000000000       0x18 build/default/production/_ext/951553248/port.o
 .MIPS.abiflags
                0x0000000000000000       0x18 build/default/production/_ext/951553248/port.o
 .text.vPortEndScheduler
                0x0000000000000000        0x8 build/default/production/_ext/951553248/port.o
 .text.vPortClearInterruptMaskFromISR
                0x0000000000000000       0x1c build/default/production/_ext/951553248/port.o
 .data          0x0000000000000000        0x0 build/default/production/_ext/951553248/port_asm.o
 .bss           0x0000000000000000        0x0 build/default/production/_ext/951553248/port_asm.o
 .reginfo       0x0000000000000000       0x18 build/default/production/_ext/951553248/port_asm.o
 .MIPS.abiflags
                0x0000000000000000       0x18 build/default/production/_ext/951553248/port_asm.o
 .text          0x0000000000000000        0x0 build/default/production/_ext/404212886/queue.o
 .data          0x0000000000000000        0x0 build/default/production/_ext/404212886/queue.o
 .bss           0x0000000000000000        0x0 build/default/production/_ext/404212886/queue.o
 .reginfo       0x0000000000000000       0x18 build/default/production/_ext/404212886/queue.o
 .MIPS.abiflags
                0x0000000000000000       0x18 build/default/production/_ext/404212886/queue.o
 .text.prvCopyDataFromQueue
                0x0000000000000000       0x54 build/default/production/_ext/404212886/queue.o
 .text.xQueueCreateCountingSemaphore
                0x0000000000000000       0x4c build/default/production/_ext/404212886/queue.o
 .text.xQueueGenericSendFromISR
                0x0000000000000000      0x104 build/default/production/_ext/404212886/queue.o
 .text.xQueueGiveFromISR
                0x0000000000000000       0xd8 build/default/production/_ext/404212886/queue.o
 .text.xQueueReceive
                0x0000000000000000      0x1c0 build/default/production/_ext/404212886/queue.o
 .text.xQueuePeek
                0x0000000000000000      0x1b8 build/default/production/_ext/404212886/queue.o
 .text.xQueueReceiveFromISR
                0x0000000000000000       0xf0 build/default/production/_ext/404212886/queue.o
 .text.xQueuePeekFromISR
                0x0000000000000000       0x74 build/default/production/_ext/404212886/queue.o
 .text.uxQueueMessagesWaiting
                0x0000000000000000       0x34 build/default/production/_ext/404212886/queue.o
 .text.uxQueueSpacesAvailable
                0x0000000000000000       0x40 build/default/production/_ext/404212886/queue.o
 .text.uxQueueMessagesWaitingFromISR
                0x0000000000000000        0xc build/default/production/_ext/404212886/queue.o
 .text.vQueueDelete
                0x0000000000000000       0x1c build/default/production/_ext/404212886/queue.o
 .text.uxQueueGetQueueItemSize
                0x0000000000000000        0x8 build/default/production/_ext/404212886/queue.o
 .text.uxQueueGetQueueLength
                0x0000000000000000        0x8 build/default/production/_ext/404212886/queue.o
 .text.xQueueIsQueueEmptyFromISR
                0x0000000000000000        0xc build/default/production/_ext/404212886/queue.o
 .text.xQueueIsQueueFullFromISR
                0x0000000000000000       0x14 build/default/production/_ext/404212886/queue.o
 .text          0x0000000000000000        0x0 build/default/production/_ext/404212886/list.o
 .data          0x0000000000000000        0x0 build/default/production/_ext/404212886/list.o
 .bss           0x0000000000000000        0x0 build/default/production/_ext/404212886/list.o
 .reginfo       0x0000000000000000       0x18 build/default/production/_ext/404212886/list.o
 .MIPS.abiflags
                0x0000000000000000       0x18 build/default/production/_ext/404212886/list.o
 .text.vListInsertEnd
                0x0000000000000000       0x2c build/default/production/_ext/404212886/list.o
 .text          0x0000000000000000        0x0 build/default/production/_ext/404212886/FreeRTOS_tasks.o
 .data          0x0000000000000000        0x0 build/default/production/_ext/404212886/FreeRTOS_tasks.o
 .bss           0x0000000000000000        0x0 build/default/production/_ext/404212886/FreeRTOS_tasks.o
 .reginfo       0x0000000000000000       0x18 build/default/production/_ext/404212886/FreeRTOS_tasks.o
 .MIPS.abiflags
                0x0000000000000000       0x18 build/default/production/_ext/404212886/FreeRTOS_tasks.o
 .text.uxTaskPriorityGetFromISR
                0x0000000000000000       0x3c build/default/production/_ext/404212886/FreeRTOS_tasks.o
 .text.uxTaskBasePriorityGetFromISR
                0x0000000000000000       0x3c build/default/production/_ext/404212886/FreeRTOS_tasks.o
 .text.xTaskGetTickCount
                0x0000000000000000        0xc build/default/production/_ext/404212886/FreeRTOS_tasks.o
 .text.xTaskGetTickCountFromISR
                0x0000000000000000        0xc build/default/production/_ext/404212886/FreeRTOS_tasks.o
 .text.uxTaskGetNumberOfTasks
                0x0000000000000000        0xc build/default/production/_ext/404212886/FreeRTOS_tasks.o
 .text.pcTaskGetName
                0x0000000000000000       0x10 build/default/production/_ext/404212886/FreeRTOS_tasks.o
 .text.vTaskPlaceOnUnorderedEventList
                0x0000000000000000       0x74 build/default/production/_ext/404212886/FreeRTOS_tasks.o
 .text.vTaskRemoveFromUnorderedEventList
                0x0000000000000000      0x124 build/default/production/_ext/404212886/FreeRTOS_tasks.o
 .text.xTaskGetCurrentTaskHandle
                0x0000000000000000        0xc build/default/production/_ext/404212886/FreeRTOS_tasks.o
 .text.xTaskGetCurrentTaskHandleForCore
                0x0000000000000000       0x14 build/default/production/_ext/404212886/FreeRTOS_tasks.o
 .text.vTaskDelete
                0x0000000000000000      0x138 build/default/production/_ext/404212886/FreeRTOS_tasks.o
 .text.uxTaskPriorityGet
                0x0000000000000000       0x38 build/default/production/_ext/404212886/FreeRTOS_tasks.o
 .text.uxTaskBasePriorityGet
                0x0000000000000000       0x38 build/default/production/_ext/404212886/FreeRTOS_tasks.o
 .text.vTaskPrioritySet
                0x0000000000000000      0x19c build/default/production/_ext/404212886/FreeRTOS_tasks.o
 .text.vTaskSuspend
                0x0000000000000000      0x140 build/default/production/_ext/404212886/FreeRTOS_tasks.o
 .text.vTaskResume
                0x0000000000000000      0x124 build/default/production/_ext/404212886/FreeRTOS_tasks.o
 .text.vTaskEndScheduler
                0x0000000000000000       0x44 build/default/production/_ext/404212886/FreeRTOS_tasks.o
 .text.xTaskDelayUntil
                0x0000000000000000       0xc4 build/default/production/_ext/404212886/FreeRTOS_tasks.o
 .text.xTaskCatchUpTicks
                0x0000000000000000       0x48 build/default/production/_ext/404212886/FreeRTOS_tasks.o
 .text.vTaskSetTimeOutState
                0x0000000000000000       0x38 build/default/production/_ext/404212886/FreeRTOS_tasks.o
 .text.uxTaskResetEventItemValue
                0x0000000000000000       0x24 build/default/production/_ext/404212886/FreeRTOS_tasks.o
 .text.ulTaskGenericNotifyTake
                0x0000000000000000      0x158 build/default/production/_ext/404212886/FreeRTOS_tasks.o
 .text.xTaskGenericNotifyWait
                0x0000000000000000      0x190 build/default/production/_ext/404212886/FreeRTOS_tasks.o
 .text.xTaskGenericNotify
                0x0000000000000000      0x20c build/default/production/_ext/404212886/FreeRTOS_tasks.o
 .text.xTaskGenericNotifyFromISR
                0x0000000000000000      0x260 build/default/production/_ext/404212886/FreeRTOS_tasks.o
 .text.vTaskGenericNotifyGiveFromISR
                0x0000000000000000      0x194 build/default/production/_ext/404212886/FreeRTOS_tasks.o
 .text.xTaskGenericNotifyStateClear
                0x0000000000000000       0x74 build/default/production/_ext/404212886/FreeRTOS_tasks.o
 .text.ulTaskGenericNotifyValueClear
                0x0000000000000000       0x6c build/default/production/_ext/404212886/FreeRTOS_tasks.o
 .text.vTaskResetState
                0x0000000000000000       0x38 build/default/production/_ext/404212886/FreeRTOS_tasks.o
 .text          0x0000000000000000        0x0 build/default/production/_ext/404212886/timers.o
 .data          0x0000000000000000        0x0 build/default/production/_ext/404212886/timers.o
 .bss           0x0000000000000000        0x0 build/default/production/_ext/404212886/timers.o
 .reginfo       0x0000000000000000       0x18 build/default/production/_ext/404212886/timers.o
 .MIPS.abiflags
                0x0000000000000000       0x18 build/default/production/_ext/404212886/timers.o
 .text          0x0000000000000000        0x0 build/default/production/_ext/404212886/event_groups.o
 .data          0x0000000000000000        0x0 build/default/production/_ext/404212886/event_groups.o
 .bss           0x0000000000000000        0x0 build/default/production/_ext/404212886/event_groups.o
 .reginfo       0x0000000000000000       0x18 build/default/production/_ext/404212886/event_groups.o
 .MIPS.abiflags
                0x0000000000000000       0x18 build/default/production/_ext/404212886/event_groups.o
 .text.xEventGroupCreate
                0x0000000000000000       0x3c build/default/production/_ext/404212886/event_groups.o
 .text.xEventGroupWaitBits
                0x0000000000000000      0x148 build/default/production/_ext/404212886/event_groups.o
 .text.xEventGroupClearBits
                0x0000000000000000       0x50 build/default/production/_ext/404212886/event_groups.o
 .text.xEventGroupGetBitsFromISR
                0x0000000000000000       0x34 build/default/production/_ext/404212886/event_groups.o
 .text.xEventGroupSetBits
                0x0000000000000000       0xdc build/default/production/_ext/404212886/event_groups.o
 .text.xEventGroupSync
                0x0000000000000000      0x11c build/default/production/_ext/404212886/event_groups.o
 .text.vEventGroupDelete
                0x0000000000000000       0x54 build/default/production/_ext/404212886/event_groups.o
 .text.vEventGroupSetBitsCallback
                0x0000000000000000       0x1c build/default/production/_ext/404212886/event_groups.o
 .text.vEventGroupClearBitsCallback
                0x0000000000000000       0x1c build/default/production/_ext/404212886/event_groups.o
 .text          0x0000000000000000        0x0 build/default/production/_ext/404212886/croutine.o
 .data          0x0000000000000000        0x0 build/default/production/_ext/404212886/croutine.o
 .bss           0x0000000000000000        0x0 build/default/production/_ext/404212886/croutine.o
 .reginfo       0x0000000000000000       0x18 build/default/production/_ext/404212886/croutine.o
 .MIPS.abiflags
                0x0000000000000000       0x18 build/default/production/_ext/404212886/croutine.o
 .text          0x0000000000000000        0x0 build/default/production/_ext/404212886/stream_buffer.o
 .data          0x0000000000000000        0x0 build/default/production/_ext/404212886/stream_buffer.o
 .bss           0x0000000000000000        0x0 build/default/production/_ext/404212886/stream_buffer.o
 .reginfo       0x0000000000000000       0x18 build/default/production/_ext/404212886/stream_buffer.o
 .MIPS.abiflags
                0x0000000000000000       0x18 build/default/production/_ext/404212886/stream_buffer.o
 .text.prvBytesInBuffer
                0x0000000000000000       0x28 build/default/production/_ext/404212886/stream_buffer.o
 .text.prvWriteBytesToBuffer
                0x0000000000000000       0xa0 build/default/production/_ext/404212886/stream_buffer.o
 .text.prvWriteMessageToBuffer
                0x0000000000000000       0x9c build/default/production/_ext/404212886/stream_buffer.o
 .text.prvReadBytesFromBuffer
                0x0000000000000000       0xa4 build/default/production/_ext/404212886/stream_buffer.o
 .text.prvReadMessageFromBuffer
                0x0000000000000000       0xac build/default/production/_ext/404212886/stream_buffer.o
 .text.xStreamBufferGenericCreate
                0x0000000000000000       0xa8 build/default/production/_ext/404212886/stream_buffer.o
 .text.vStreamBufferDelete
                0x0000000000000000       0x3c build/default/production/_ext/404212886/stream_buffer.o
 .text.xStreamBufferReset
                0x0000000000000000       0x9c build/default/production/_ext/404212886/stream_buffer.o
 .text.xStreamBufferResetFromISR
                0x0000000000000000       0xa8 build/default/production/_ext/404212886/stream_buffer.o
 .text.xStreamBufferSetTriggerLevel
                0x0000000000000000       0x28 build/default/production/_ext/404212886/stream_buffer.o
 .text.xStreamBufferSpacesAvailable
                0x0000000000000000       0x3c build/default/production/_ext/404212886/stream_buffer.o
 .text.xStreamBufferBytesAvailable
                0x0000000000000000       0x1c build/default/production/_ext/404212886/stream_buffer.o
 .text.xStreamBufferSend
                0x0000000000000000      0x1a4 build/default/production/_ext/404212886/stream_buffer.o
 .text.xStreamBufferSendFromISR
                0x0000000000000000       0xe0 build/default/production/_ext/404212886/stream_buffer.o
 .text.xStreamBufferReceive
                0x0000000000000000      0x168 build/default/production/_ext/404212886/stream_buffer.o
 .text.xStreamBufferNextMessageLengthBytes
                0x0000000000000000       0x60 build/default/production/_ext/404212886/stream_buffer.o
 .text.xStreamBufferReceiveFromISR
                0x0000000000000000       0xd0 build/default/production/_ext/404212886/stream_buffer.o
 .text.xStreamBufferIsEmpty
                0x0000000000000000       0x14 build/default/production/_ext/404212886/stream_buffer.o
 .text.xStreamBufferIsFull
                0x0000000000000000       0x34 build/default/production/_ext/404212886/stream_buffer.o
 .text.xStreamBufferSendCompletedFromISR
                0x0000000000000000       0x80 build/default/production/_ext/404212886/stream_buffer.o
 .text.xStreamBufferReceiveCompletedFromISR
                0x0000000000000000       0x80 build/default/production/_ext/404212886/stream_buffer.o
 .text.uxStreamBufferGetStreamBufferNotificationIndex
                0x0000000000000000        0x8 build/default/production/_ext/404212886/stream_buffer.o
 .text.vStreamBufferSetStreamBufferNotificationIndex
                0x0000000000000000        0x8 build/default/production/_ext/404212886/stream_buffer.o
 .text          0x0000000000000000        0x0 build/default/production/_ext/1360937237/app.o
 .data          0x0000000000000000        0x0 build/default/production/_ext/1360937237/app.o
 .bss           0x0000000000000000        0x0 build/default/production/_ext/1360937237/app.o
 .reginfo       0x0000000000000000       0x18 build/default/production/_ext/1360937237/app.o
 .MIPS.abiflags
                0x0000000000000000       0x18 build/default/production/_ext/1360937237/app.o
 .text          0x0000000000000000        0x0 build/default/production/_ext/1360937237/main.o
 .data          0x0000000000000000        0x0 build/default/production/_ext/1360937237/main.o
 .bss           0x0000000000000000        0x0 build/default/production/_ext/1360937237/main.o
 .reginfo       0x0000000000000000       0x18 build/default/production/_ext/1360937237/main.o
 .MIPS.abiflags
                0x0000000000000000       0x18 build/default/production/_ext/1360937237/main.o
 .text          0x0000000000000000        0x0 build/default/production/_ext/1360937237/mouse.o
 .data          0x0000000000000000        0x0 build/default/production/_ext/1360937237/mouse.o
 .bss           0x0000000000000000        0x0 build/default/production/_ext/1360937237/mouse.o
 .reginfo       0x0000000000000000       0x18 build/default/production/_ext/1360937237/mouse.o
 .MIPS.abiflags
                0x0000000000000000       0x18 build/default/production/_ext/1360937237/mouse.o
 .text          0x0000000000000000        0x0 C:\Users\aryll\AppData\Local\Temp\ccKXWNGz.o
 .data          0x0000000000000000        0x0 C:\Users\aryll\AppData\Local\Temp\ccKXWNGz.o
 .bss           0x0000000000000000        0x0 C:\Users\aryll\AppData\Local\Temp\ccKXWNGz.o
 .reginfo       0x0000000000000000       0x18 C:\Users\aryll\AppData\Local\Temp\ccKXWNGz.o
 .MIPS.abiflags
                0x0000000000000000       0x18 C:\Users\aryll\AppData\Local\Temp\ccKXWNGz.o
 .text          0x0000000000000000        0x0 C:\Users\aryll\AppData\Local\Temp\ccvbz1Nu.o
 .data          0x0000000000000000        0x0 C:\Users\aryll\AppData\Local\Temp\ccvbz1Nu.o
 .bss           0x0000000000000000        0x0 C:\Users\aryll\AppData\Local\Temp\ccvbz1Nu.o
 .reginfo       0x0000000000000000       0x18 C:\Users\aryll\AppData\Local\Temp\ccvbz1Nu.o
 .MIPS.abiflags
                0x0000000000000000       0x18 C:\Users\aryll\AppData\Local\Temp\ccvbz1Nu.o
 .text          0x0000000000000000        0x0 C:\Users\aryll\AppData\Local\Temp\cci6AvUz.o
 .data          0x0000000000000000        0x0 C:\Users\aryll\AppData\Local\Temp\cci6AvUz.o
 .bss           0x0000000000000000        0x0 C:\Users\aryll\AppData\Local\Temp\cci6AvUz.o
 .reginfo       0x0000000000000000       0x18 C:\Users\aryll\AppData\Local\Temp\cci6AvUz.o
 .MIPS.abiflags
                0x0000000000000000       0x18 C:\Users\aryll\AppData\Local\Temp\cci6AvUz.o
 .discard       0x0000000000000000       0xb0 C:\Users\aryll\AppData\Local\Temp\cci6AvUz.o
 .data          0x0000000000000000        0x0 c:/program files/microchip/xc32/v4.60/bin/bin/../../lib/gcc/pic32mx/8.3.1/../../../../pic32mx/lib\pic32_software_reset.o
 .bss           0x0000000000000000        0x0 c:/program files/microchip/xc32/v4.60/bin/bin/../../lib/gcc/pic32mx/8.3.1/../../../../pic32mx/lib\pic32_software_reset.o
 .reginfo       0x0000000000000000       0x18 c:/program files/microchip/xc32/v4.60/bin/bin/../../lib/gcc/pic32mx/8.3.1/../../../../pic32mx/lib\pic32_software_reset.o
 .MIPS.abiflags
                0x0000000000000000       0x18 c:/program files/microchip/xc32/v4.60/bin/bin/../../lib/gcc/pic32mx/8.3.1/../../../../pic32mx/lib\pic32_software_reset.o
 .xc_stack_usage.hdr
                0x0000000000000000        0xe c:/program files/microchip/xc32/v4.60/bin/bin/../../lib/gcc/pic32mx/8.3.1/../../../../pic32mx/lib\pic32_software_reset.o
 .xc_stack_usage
                0x0000000000000000       0x24 c:/program files/microchip/xc32/v4.60/bin/bin/../../lib/gcc/pic32mx/8.3.1/../../../../pic32mx/lib\pic32_software_reset.o
 .text          0x0000000000000000        0x0 c:/program files/microchip/xc32/v4.60/bin/bin/../../lib/gcc/pic32mx/8.3.1/../../../../pic32mx/lib\libpic32.a(default-on-reset.o)
 .data          0x0000000000000000        0x0 c:/program files/microchip/xc32/v4.60/bin/bin/../../lib/gcc/pic32mx/8.3.1/../../../../pic32mx/lib\libpic32.a(default-on-reset.o)
 .bss           0x0000000000000000        0x0 c:/program files/microchip/xc32/v4.60/bin/bin/../../lib/gcc/pic32mx/8.3.1/../../../../pic32mx/lib\libpic32.a(default-on-reset.o)
 .reginfo       0x0000000000000000       0x18 c:/program files/microchip/xc32/v4.60/bin/bin/../../lib/gcc/pic32mx/8.3.1/../../../../pic32mx/lib\libpic32.a(default-on-reset.o)
 .MIPS.abiflags
                0x0000000000000000       0x18 c:/program files/microchip/xc32/v4.60/bin/bin/../../lib/gcc/pic32mx/8.3.1/../../../../pic32mx/lib\libpic32.a(default-on-reset.o)
 .xc_stack_usage
                0x0000000000000000       0x17 c:/program files/microchip/xc32/v4.60/bin/bin/../../lib/gcc/pic32mx/8.3.1/../../../../pic32mx/lib\libpic32.a(default-on-reset.o)
 .xc_stack_usage.hdr
                0x0000000000000000        0xe c:/program files/microchip/xc32/v4.60/bin/bin/../../lib/gcc/pic32mx/8.3.1/../../../../pic32mx/lib\libpic32.a(default-on-reset.o)
 .text          0x0000000000000000        0x0 c:/program files/microchip/xc32/v4.60/bin/bin/../../lib/gcc/pic32mx/8.3.1/../../../../pic32mx/lib\libpic32.a(default-on-bootstrap.o)
 .data          0x0000000000000000        0x0 c:/program files/microchip/xc32/v4.60/bin/bin/../../lib/gcc/pic32mx/8.3.1/../../../../pic32mx/lib\libpic32.a(default-on-bootstrap.o)
 .bss           0x0000000000000000        0x0 c:/program files/microchip/xc32/v4.60/bin/bin/../../lib/gcc/pic32mx/8.3.1/../../../../pic32mx/lib\libpic32.a(default-on-bootstrap.o)
 .reginfo       0x0000000000000000       0x18 c:/program files/microchip/xc32/v4.60/bin/bin/../../lib/gcc/pic32mx/8.3.1/../../../../pic32mx/lib\libpic32.a(default-on-bootstrap.o)
 .MIPS.abiflags
                0x0000000000000000       0x18 c:/program files/microchip/xc32/v4.60/bin/bin/../../lib/gcc/pic32mx/8.3.1/../../../../pic32mx/lib\libpic32.a(default-on-bootstrap.o)
 .xc_stack_usage
                0x0000000000000000       0x1b c:/program files/microchip/xc32/v4.60/bin/bin/../../lib/gcc/pic32mx/8.3.1/../../../../pic32mx/lib\libpic32.a(default-on-bootstrap.o)
 .xc_stack_usage.hdr
                0x0000000000000000        0xe c:/program files/microchip/xc32/v4.60/bin/bin/../../lib/gcc/pic32mx/8.3.1/../../../../pic32mx/lib\libpic32.a(default-on-bootstrap.o)
 .data          0x0000000000000000        0x0 c:/program files/microchip/xc32/v4.60/bin/bin/../../lib/gcc/pic32mx/8.3.1/../../../../pic32mx/lib\libpic32.a(default-nmi-handler.o)
 .bss           0x0000000000000000        0x0 c:/program files/microchip/xc32/v4.60/bin/bin/../../lib/gcc/pic32mx/8.3.1/../../../../pic32mx/lib\libpic32.a(default-nmi-handler.o)
 .reginfo       0x0000000000000000       0x18 c:/program files/microchip/xc32/v4.60/bin/bin/../../lib/gcc/pic32mx/8.3.1/../../../../pic32mx/lib\libpic32.a(default-nmi-handler.o)
 .MIPS.abiflags
                0x0000000000000000       0x18 c:/program files/microchip/xc32/v4.60/bin/bin/../../lib/gcc/pic32mx/8.3.1/../../../../pic32mx/lib\libpic32.a(default-nmi-handler.o)
 .xc_stack_usage.hdr
                0x0000000000000000        0xe c:/program files/microchip/xc32/v4.60/bin/bin/../../lib/gcc/pic32mx/8.3.1/../../../../pic32mx/lib\libpic32.a(default-nmi-handler.o)
 .xc_stack_usage
                0x0000000000000000       0x1a c:/program files/microchip/xc32/v4.60/bin/bin/../../lib/gcc/pic32mx/8.3.1/../../../../pic32mx/lib\libpic32.a(default-nmi-handler.o)
 .data          0x0000000000000000        0x0 c:/program files/microchip/xc32/v4.60/bin/bin/../../lib/gcc/pic32mx/8.3.1/../../../../pic32mx/lib\libpic32.a(pic32_data_init_core.o)
 .bss           0x0000000000000000        0x0 c:/program files/microchip/xc32/v4.60/bin/bin/../../lib/gcc/pic32mx/8.3.1/../../../../pic32mx/lib\libpic32.a(pic32_data_init_core.o)
 .reginfo       0x0000000000000000       0x18 c:/program files/microchip/xc32/v4.60/bin/bin/../../lib/gcc/pic32mx/8.3.1/../../../../pic32mx/lib\libpic32.a(pic32_data_init_core.o)
 .MIPS.abiflags
                0x0000000000000000       0x18 c:/program files/microchip/xc32/v4.60/bin/bin/../../lib/gcc/pic32mx/8.3.1/../../../../pic32mx/lib\libpic32.a(pic32_data_init_core.o)
 .xc_stack_usage.hdr
                0x0000000000000000        0xe c:/program files/microchip/xc32/v4.60/bin/bin/../../lib/gcc/pic32mx/8.3.1/../../../../pic32mx/lib\libpic32.a(pic32_data_init_core.o)
 .xc_stack_usage
                0x0000000000000000       0x41 c:/program files/microchip/xc32/v4.60/bin/bin/../../lib/gcc/pic32mx/8.3.1/../../../../pic32mx/lib\libpic32.a(pic32_data_init_core.o)
 .text          0x0000000000000000        0x0 c:/program files/microchip/xc32/v4.60/bin/bin/../../lib/gcc/pic32mx/8.3.1/../../../../pic32mx/lib\libpic32.a(general-exception.o)
 .data          0x0000000000000000        0x0 c:/program files/microchip/xc32/v4.60/bin/bin/../../lib/gcc/pic32mx/8.3.1/../../../../pic32mx/lib\libpic32.a(general-exception.o)
 .bss           0x0000000000000000        0x0 c:/program files/microchip/xc32/v4.60/bin/bin/../../lib/gcc/pic32mx/8.3.1/../../../../pic32mx/lib\libpic32.a(general-exception.o)
 .reginfo       0x0000000000000000       0x18 c:/program files/microchip/xc32/v4.60/bin/bin/../../lib/gcc/pic32mx/8.3.1/../../../../pic32mx/lib\libpic32.a(general-exception.o)
 .MIPS.abiflags
                0x0000000000000000       0x18 c:/program files/microchip/xc32/v4.60/bin/bin/../../lib/gcc/pic32mx/8.3.1/../../../../pic32mx/lib\libpic32.a(general-exception.o)
 .xc_stack_usage.hdr
                0x0000000000000000        0xe c:/program files/microchip/xc32/v4.60/bin/bin/../../lib/gcc/pic32mx/8.3.1/../../../../pic32mx/lib\libpic32.a(general-exception.o)
 .xc_stack_usage
                0x0000000000000000       0x28 c:/program files/microchip/xc32/v4.60/bin/bin/../../lib/gcc/pic32mx/8.3.1/../../../../pic32mx/lib\libpic32.a(general-exception.o)
 .text          0x0000000000000000        0x0 c:/program files/microchip/xc32/v4.60/bin/bin/../../lib/gcc/pic32mx/8.3.1/../../../../pic32mx/lib\libpic32.a(vector0.o)
 .data          0x0000000000000000        0x0 c:/program files/microchip/xc32/v4.60/bin/bin/../../lib/gcc/pic32mx/8.3.1/../../../../pic32mx/lib\libpic32.a(vector0.o)
 .bss           0x0000000000000000        0x0 c:/program files/microchip/xc32/v4.60/bin/bin/../../lib/gcc/pic32mx/8.3.1/../../../../pic32mx/lib\libpic32.a(vector0.o)
 .reginfo       0x0000000000000000       0x18 c:/program files/microchip/xc32/v4.60/bin/bin/../../lib/gcc/pic32mx/8.3.1/../../../../pic32mx/lib\libpic32.a(vector0.o)
 .MIPS.abiflags
                0x0000000000000000       0x18 c:/program files/microchip/xc32/v4.60/bin/bin/../../lib/gcc/pic32mx/8.3.1/../../../../pic32mx/lib\libpic32.a(vector0.o)
 .xc_stack_usage.hdr
                0x0000000000000000        0xe c:/program files/microchip/xc32/v4.60/bin/bin/../../lib/gcc/pic32mx/8.3.1/../../../../pic32mx/lib\libpic32.a(vector0.o)
 .xc_stack_usage
                0x0000000000000000       0x21 c:/program files/microchip/xc32/v4.60/bin/bin/../../lib/gcc/pic32mx/8.3.1/../../../../pic32mx/lib\libpic32.a(vector0.o)
 .text          0x0000000000000000        0x0 c:/program files/microchip/xc32/v4.60/bin/bin/../../lib/gcc/pic32mx/8.3.1/../../../../pic32mx/lib\libpic32.a(vector2.o)
 .data          0x0000000000000000        0x0 c:/program files/microchip/xc32/v4.60/bin/bin/../../lib/gcc/pic32mx/8.3.1/../../../../pic32mx/lib\libpic32.a(vector2.o)
 .bss           0x0000000000000000        0x0 c:/program files/microchip/xc32/v4.60/bin/bin/../../lib/gcc/pic32mx/8.3.1/../../../../pic32mx/lib\libpic32.a(vector2.o)
 .reginfo       0x0000000000000000       0x18 c:/program files/microchip/xc32/v4.60/bin/bin/../../lib/gcc/pic32mx/8.3.1/../../../../pic32mx/lib\libpic32.a(vector2.o)
 .MIPS.abiflags
                0x0000000000000000       0x18 c:/program files/microchip/xc32/v4.60/bin/bin/../../lib/gcc/pic32mx/8.3.1/../../../../pic32mx/lib\libpic32.a(vector2.o)
 .xc_stack_usage.hdr
                0x0000000000000000        0xe c:/program files/microchip/xc32/v4.60/bin/bin/../../lib/gcc/pic32mx/8.3.1/../../../../pic32mx/lib\libpic32.a(vector2.o)
 .xc_stack_usage
                0x0000000000000000       0x21 c:/program files/microchip/xc32/v4.60/bin/bin/../../lib/gcc/pic32mx/8.3.1/../../../../pic32mx/lib\libpic32.a(vector2.o)
 .text          0x0000000000000000        0x0 c:/program files/microchip/xc32/v4.60/bin/bin/../../lib/gcc/pic32mx/8.3.1/../../../../pic32mx/lib\libpic32.a(vector3.o)
 .data          0x0000000000000000        0x0 c:/program files/microchip/xc32/v4.60/bin/bin/../../lib/gcc/pic32mx/8.3.1/../../../../pic32mx/lib\libpic32.a(vector3.o)
 .bss           0x0000000000000000        0x0 c:/program files/microchip/xc32/v4.60/bin/bin/../../lib/gcc/pic32mx/8.3.1/../../../../pic32mx/lib\libpic32.a(vector3.o)
 .reginfo       0x0000000000000000       0x18 c:/program files/microchip/xc32/v4.60/bin/bin/../../lib/gcc/pic32mx/8.3.1/../../../../pic32mx/lib\libpic32.a(vector3.o)
 .MIPS.abiflags
                0x0000000000000000       0x18 c:/program files/microchip/xc32/v4.60/bin/bin/../../lib/gcc/pic32mx/8.3.1/../../../../pic32mx/lib\libpic32.a(vector3.o)
 .xc_stack_usage.hdr
                0x0000000000000000        0xe c:/program files/microchip/xc32/v4.60/bin/bin/../../lib/gcc/pic32mx/8.3.1/../../../../pic32mx/lib\libpic32.a(vector3.o)
 .xc_stack_usage
                0x0000000000000000       0x21 c:/program files/microchip/xc32/v4.60/bin/bin/../../lib/gcc/pic32mx/8.3.1/../../../../pic32mx/lib\libpic32.a(vector3.o)
 .text          0x0000000000000000        0x0 c:/program files/microchip/xc32/v4.60/bin/bin/../../lib/gcc/pic32mx/8.3.1/../../../../pic32mx/lib\libpic32.a(vector5.o)
 .data          0x0000000000000000        0x0 c:/program files/microchip/xc32/v4.60/bin/bin/../../lib/gcc/pic32mx/8.3.1/../../../../pic32mx/lib\libpic32.a(vector5.o)
 .bss           0x0000000000000000        0x0 c:/program files/microchip/xc32/v4.60/bin/bin/../../lib/gcc/pic32mx/8.3.1/../../../../pic32mx/lib\libpic32.a(vector5.o)
 .reginfo       0x0000000000000000       0x18 c:/program files/microchip/xc32/v4.60/bin/bin/../../lib/gcc/pic32mx/8.3.1/../../../../pic32mx/lib\libpic32.a(vector5.o)
 .MIPS.abiflags
                0x0000000000000000       0x18 c:/program files/microchip/xc32/v4.60/bin/bin/../../lib/gcc/pic32mx/8.3.1/../../../../pic32mx/lib\libpic32.a(vector5.o)
 .xc_stack_usage.hdr
                0x0000000000000000        0xe c:/program files/microchip/xc32/v4.60/bin/bin/../../lib/gcc/pic32mx/8.3.1/../../../../pic32mx/lib\libpic32.a(vector5.o)
 .xc_stack_usage
                0x0000000000000000       0x21 c:/program files/microchip/xc32/v4.60/bin/bin/../../lib/gcc/pic32mx/8.3.1/../../../../pic32mx/lib\libpic32.a(vector5.o)
 .text          0x0000000000000000        0x0 c:/program files/microchip/xc32/v4.60/bin/bin/../../lib/gcc/pic32mx/8.3.1/../../../../pic32mx/lib\libpic32.a(vector6.o)
 .data          0x0000000000000000        0x0 c:/program files/microchip/xc32/v4.60/bin/bin/../../lib/gcc/pic32mx/8.3.1/../../../../pic32mx/lib\libpic32.a(vector6.o)
 .bss           0x0000000000000000        0x0 c:/program files/microchip/xc32/v4.60/bin/bin/../../lib/gcc/pic32mx/8.3.1/../../../../pic32mx/lib\libpic32.a(vector6.o)
 .reginfo       0x0000000000000000       0x18 c:/program files/microchip/xc32/v4.60/bin/bin/../../lib/gcc/pic32mx/8.3.1/../../../../pic32mx/lib\libpic32.a(vector6.o)
 .MIPS.abiflags
                0x0000000000000000       0x18 c:/program files/microchip/xc32/v4.60/bin/bin/../../lib/gcc/pic32mx/8.3.1/../../../../pic32mx/lib\libpic32.a(vector6.o)
 .xc_stack_usage.hdr
                0x0000000000000000        0xe c:/program files/microchip/xc32/v4.60/bin/bin/../../lib/gcc/pic32mx/8.3.1/../../../../pic32mx/lib\libpic32.a(vector6.o)
 .xc_stack_usage
                0x0000000000000000       0x21 c:/program files/microchip/xc32/v4.60/bin/bin/../../lib/gcc/pic32mx/8.3.1/../../../../pic32mx/lib\libpic32.a(vector6.o)
 .text          0x0000000000000000        0x0 c:/program files/microchip/xc32/v4.60/bin/bin/../../lib/gcc/pic32mx/8.3.1/../../../../pic32mx/lib\libpic32.a(vector7.o)
 .data          0x0000000000000000        0x0 c:/program files/microchip/xc32/v4.60/bin/bin/../../lib/gcc/pic32mx/8.3.1/../../../../pic32mx/lib\libpic32.a(vector7.o)
 .bss           0x0000000000000000        0x0 c:/program files/microchip/xc32/v4.60/bin/bin/../../lib/gcc/pic32mx/8.3.1/../../../../pic32mx/lib\libpic32.a(vector7.o)
 .reginfo       0x0000000000000000       0x18 c:/program files/microchip/xc32/v4.60/bin/bin/../../lib/gcc/pic32mx/8.3.1/../../../../pic32mx/lib\libpic32.a(vector7.o)
 .MIPS.abiflags
                0x0000000000000000       0x18 c:/program files/microchip/xc32/v4.60/bin/bin/../../lib/gcc/pic32mx/8.3.1/../../../../pic32mx/lib\libpic32.a(vector7.o)
 .xc_stack_usage.hdr
                0x0000000000000000        0xe c:/program files/microchip/xc32/v4.60/bin/bin/../../lib/gcc/pic32mx/8.3.1/../../../../pic32mx/lib\libpic32.a(vector7.o)
 .xc_stack_usage
                0x0000000000000000       0x21 c:/program files/microchip/xc32/v4.60/bin/bin/../../lib/gcc/pic32mx/8.3.1/../../../../pic32mx/lib\libpic32.a(vector7.o)
 .text          0x0000000000000000        0x0 c:/program files/microchip/xc32/v4.60/bin/bin/../../lib/gcc/pic32mx/8.3.1/../../../../pic32mx/lib\libpic32.a(vector8.o)
 .data          0x0000000000000000        0x0 c:/program files/microchip/xc32/v4.60/bin/bin/../../lib/gcc/pic32mx/8.3.1/../../../../pic32mx/lib\libpic32.a(vector8.o)
 .bss           0x0000000000000000        0x0 c:/program files/microchip/xc32/v4.60/bin/bin/../../lib/gcc/pic32mx/8.3.1/../../../../pic32mx/lib\libpic32.a(vector8.o)
 .reginfo       0x0000000000000000       0x18 c:/program files/microchip/xc32/v4.60/bin/bin/../../lib/gcc/pic32mx/8.3.1/../../../../pic32mx/lib\libpic32.a(vector8.o)
 .MIPS.abiflags
                0x0000000000000000       0x18 c:/program files/microchip/xc32/v4.60/bin/bin/../../lib/gcc/pic32mx/8.3.1/../../../../pic32mx/lib\libpic32.a(vector8.o)
 .xc_stack_usage.hdr
                0x0000000000000000        0xe c:/program files/microchip/xc32/v4.60/bin/bin/../../lib/gcc/pic32mx/8.3.1/../../../../pic32mx/lib\libpic32.a(vector8.o)
 .xc_stack_usage
                0x0000000000000000       0x21 c:/program files/microchip/xc32/v4.60/bin/bin/../../lib/gcc/pic32mx/8.3.1/../../../../pic32mx/lib\libpic32.a(vector8.o)
 .text          0x0000000000000000        0x0 c:/program files/microchip/xc32/v4.60/bin/bin/../../lib/gcc/pic32mx/8.3.1/../../../../pic32mx/lib\libpic32.a(vector9.o)
 .data          0x0000000000000000        0x0 c:/program files/microchip/xc32/v4.60/bin/bin/../../lib/gcc/pic32mx/8.3.1/../../../../pic32mx/lib\libpic32.a(vector9.o)
 .bss           0x0000000000000000        0x0 c:/program files/microchip/xc32/v4.60/bin/bin/../../lib/gcc/pic32mx/8.3.1/../../../../pic32mx/lib\libpic32.a(vector9.o)
 .reginfo       0x0000000000000000       0x18 c:/program files/microchip/xc32/v4.60/bin/bin/../../lib/gcc/pic32mx/8.3.1/../../../../pic32mx/lib\libpic32.a(vector9.o)
 .MIPS.abiflags
                0x0000000000000000       0x18 c:/program files/microchip/xc32/v4.60/bin/bin/../../lib/gcc/pic32mx/8.3.1/../../../../pic32mx/lib\libpic32.a(vector9.o)
 .xc_stack_usage.hdr
                0x0000000000000000        0xe c:/program files/microchip/xc32/v4.60/bin/bin/../../lib/gcc/pic32mx/8.3.1/../../../../pic32mx/lib\libpic32.a(vector9.o)
 .xc_stack_usage
                0x0000000000000000       0x21 c:/program files/microchip/xc32/v4.60/bin/bin/../../lib/gcc/pic32mx/8.3.1/../../../../pic32mx/lib\libpic32.a(vector9.o)
 .text          0x0000000000000000        0x0 c:/program files/microchip/xc32/v4.60/bin/bin/../../lib/gcc/pic32mx/8.3.1/../../../../pic32mx/lib\libpic32.a(vector10.o)
 .data          0x0000000000000000        0x0 c:/program files/microchip/xc32/v4.60/bin/bin/../../lib/gcc/pic32mx/8.3.1/../../../../pic32mx/lib\libpic32.a(vector10.o)
 .bss           0x0000000000000000        0x0 c:/program files/microchip/xc32/v4.60/bin/bin/../../lib/gcc/pic32mx/8.3.1/../../../../pic32mx/lib\libpic32.a(vector10.o)
 .reginfo       0x0000000000000000       0x18 c:/program files/microchip/xc32/v4.60/bin/bin/../../lib/gcc/pic32mx/8.3.1/../../../../pic32mx/lib\libpic32.a(vector10.o)
 .MIPS.abiflags
                0x0000000000000000       0x18 c:/program files/microchip/xc32/v4.60/bin/bin/../../lib/gcc/pic32mx/8.3.1/../../../../pic32mx/lib\libpic32.a(vector10.o)
 .xc_stack_usage.hdr
                0x0000000000000000        0xe c:/program files/microchip/xc32/v4.60/bin/bin/../../lib/gcc/pic32mx/8.3.1/../../../../pic32mx/lib\libpic32.a(vector10.o)
 .xc_stack_usage
                0x0000000000000000       0x22 c:/program files/microchip/xc32/v4.60/bin/bin/../../lib/gcc/pic32mx/8.3.1/../../../../pic32mx/lib\libpic32.a(vector10.o)
 .text          0x0000000000000000        0x0 c:/program files/microchip/xc32/v4.60/bin/bin/../../lib/gcc/pic32mx/8.3.1/../../../../pic32mx/lib\libpic32.a(vector11.o)
 .data          0x0000000000000000        0x0 c:/program files/microchip/xc32/v4.60/bin/bin/../../lib/gcc/pic32mx/8.3.1/../../../../pic32mx/lib\libpic32.a(vector11.o)
 .bss           0x0000000000000000        0x0 c:/program files/microchip/xc32/v4.60/bin/bin/../../lib/gcc/pic32mx/8.3.1/../../../../pic32mx/lib\libpic32.a(vector11.o)
 .reginfo       0x0000000000000000       0x18 c:/program files/microchip/xc32/v4.60/bin/bin/../../lib/gcc/pic32mx/8.3.1/../../../../pic32mx/lib\libpic32.a(vector11.o)
 .MIPS.abiflags
                0x0000000000000000       0x18 c:/program files/microchip/xc32/v4.60/bin/bin/../../lib/gcc/pic32mx/8.3.1/../../../../pic32mx/lib\libpic32.a(vector11.o)
 .xc_stack_usage.hdr
                0x0000000000000000        0xe c:/program files/microchip/xc32/v4.60/bin/bin/../../lib/gcc/pic32mx/8.3.1/../../../../pic32mx/lib\libpic32.a(vector11.o)
 .xc_stack_usage
                0x0000000000000000       0x22 c:/program files/microchip/xc32/v4.60/bin/bin/../../lib/gcc/pic32mx/8.3.1/../../../../pic32mx/lib\libpic32.a(vector11.o)
 .text          0x0000000000000000        0x0 c:/program files/microchip/xc32/v4.60/bin/bin/../../lib/gcc/pic32mx/8.3.1/../../../../pic32mx/lib\libpic32.a(vector12.o)
 .data          0x0000000000000000        0x0 c:/program files/microchip/xc32/v4.60/bin/bin/../../lib/gcc/pic32mx/8.3.1/../../../../pic32mx/lib\libpic32.a(vector12.o)
 .bss           0x0000000000000000        0x0 c:/program files/microchip/xc32/v4.60/bin/bin/../../lib/gcc/pic32mx/8.3.1/../../../../pic32mx/lib\libpic32.a(vector12.o)
 .reginfo       0x0000000000000000       0x18 c:/program files/microchip/xc32/v4.60/bin/bin/../../lib/gcc/pic32mx/8.3.1/../../../../pic32mx/lib\libpic32.a(vector12.o)
 .MIPS.abiflags
                0x0000000000000000       0x18 c:/program files/microchip/xc32/v4.60/bin/bin/../../lib/gcc/pic32mx/8.3.1/../../../../pic32mx/lib\libpic32.a(vector12.o)
 .xc_stack_usage.hdr
                0x0000000000000000        0xe c:/program files/microchip/xc32/v4.60/bin/bin/../../lib/gcc/pic32mx/8.3.1/../../../../pic32mx/lib\libpic32.a(vector12.o)
 .xc_stack_usage
                0x0000000000000000       0x22 c:/program files/microchip/xc32/v4.60/bin/bin/../../lib/gcc/pic32mx/8.3.1/../../../../pic32mx/lib\libpic32.a(vector12.o)
 .text          0x0000000000000000        0x0 c:/program files/microchip/xc32/v4.60/bin/bin/../../lib/gcc/pic32mx/8.3.1/../../../../pic32mx/lib\libpic32.a(vector13.o)
 .data          0x0000000000000000        0x0 c:/program files/microchip/xc32/v4.60/bin/bin/../../lib/gcc/pic32mx/8.3.1/../../../../pic32mx/lib\libpic32.a(vector13.o)
 .bss           0x0000000000000000        0x0 c:/program files/microchip/xc32/v4.60/bin/bin/../../lib/gcc/pic32mx/8.3.1/../../../../pic32mx/lib\libpic32.a(vector13.o)
 .reginfo       0x0000000000000000       0x18 c:/program files/microchip/xc32/v4.60/bin/bin/../../lib/gcc/pic32mx/8.3.1/../../../../pic32mx/lib\libpic32.a(vector13.o)
 .MIPS.abiflags
                0x0000000000000000       0x18 c:/program files/microchip/xc32/v4.60/bin/bin/../../lib/gcc/pic32mx/8.3.1/../../../../pic32mx/lib\libpic32.a(vector13.o)
 .xc_stack_usage.hdr
                0x0000000000000000        0xe c:/program files/microchip/xc32/v4.60/bin/bin/../../lib/gcc/pic32mx/8.3.1/../../../../pic32mx/lib\libpic32.a(vector13.o)
 .xc_stack_usage
                0x0000000000000000       0x22 c:/program files/microchip/xc32/v4.60/bin/bin/../../lib/gcc/pic32mx/8.3.1/../../../../pic32mx/lib\libpic32.a(vector13.o)
 .text          0x0000000000000000        0x0 c:/program files/microchip/xc32/v4.60/bin/bin/../../lib/gcc/pic32mx/8.3.1/../../../../pic32mx/lib\libpic32.a(vector14.o)
 .data          0x0000000000000000        0x0 c:/program files/microchip/xc32/v4.60/bin/bin/../../lib/gcc/pic32mx/8.3.1/../../../../pic32mx/lib\libpic32.a(vector14.o)
 .bss           0x0000000000000000        0x0 c:/program files/microchip/xc32/v4.60/bin/bin/../../lib/gcc/pic32mx/8.3.1/../../../../pic32mx/lib\libpic32.a(vector14.o)
 .reginfo       0x0000000000000000       0x18 c:/program files/microchip/xc32/v4.60/bin/bin/../../lib/gcc/pic32mx/8.3.1/../../../../pic32mx/lib\libpic32.a(vector14.o)
 .MIPS.abiflags
                0x0000000000000000       0x18 c:/program files/microchip/xc32/v4.60/bin/bin/../../lib/gcc/pic32mx/8.3.1/../../../../pic32mx/lib\libpic32.a(vector14.o)
 .xc_stack_usage.hdr
                0x0000000000000000        0xe c:/program files/microchip/xc32/v4.60/bin/bin/../../lib/gcc/pic32mx/8.3.1/../../../../pic32mx/lib\libpic32.a(vector14.o)
 .xc_stack_usage
                0x0000000000000000       0x22 c:/program files/microchip/xc32/v4.60/bin/bin/../../lib/gcc/pic32mx/8.3.1/../../../../pic32mx/lib\libpic32.a(vector14.o)
 .text          0x0000000000000000        0x0 c:/program files/microchip/xc32/v4.60/bin/bin/../../lib/gcc/pic32mx/8.3.1/../../../../pic32mx/lib\libpic32.a(vector15.o)
 .data          0x0000000000000000        0x0 c:/program files/microchip/xc32/v4.60/bin/bin/../../lib/gcc/pic32mx/8.3.1/../../../../pic32mx/lib\libpic32.a(vector15.o)
 .bss           0x0000000000000000        0x0 c:/program files/microchip/xc32/v4.60/bin/bin/../../lib/gcc/pic32mx/8.3.1/../../../../pic32mx/lib\libpic32.a(vector15.o)
 .reginfo       0x0000000000000000       0x18 c:/program files/microchip/xc32/v4.60/bin/bin/../../lib/gcc/pic32mx/8.3.1/../../../../pic32mx/lib\libpic32.a(vector15.o)
 .MIPS.abiflags
                0x0000000000000000       0x18 c:/program files/microchip/xc32/v4.60/bin/bin/../../lib/gcc/pic32mx/8.3.1/../../../../pic32mx/lib\libpic32.a(vector15.o)
 .xc_stack_usage.hdr
                0x0000000000000000        0xe c:/program files/microchip/xc32/v4.60/bin/bin/../../lib/gcc/pic32mx/8.3.1/../../../../pic32mx/lib\libpic32.a(vector15.o)
 .xc_stack_usage
                0x0000000000000000       0x22 c:/program files/microchip/xc32/v4.60/bin/bin/../../lib/gcc/pic32mx/8.3.1/../../../../pic32mx/lib\libpic32.a(vector15.o)
 .text          0x0000000000000000        0x0 c:/program files/microchip/xc32/v4.60/bin/bin/../../lib/gcc/pic32mx/8.3.1/../../../../pic32mx/lib\libpic32.a(vector16.o)
 .data          0x0000000000000000        0x0 c:/program files/microchip/xc32/v4.60/bin/bin/../../lib/gcc/pic32mx/8.3.1/../../../../pic32mx/lib\libpic32.a(vector16.o)
 .bss           0x0000000000000000        0x0 c:/program files/microchip/xc32/v4.60/bin/bin/../../lib/gcc/pic32mx/8.3.1/../../../../pic32mx/lib\libpic32.a(vector16.o)
 .reginfo       0x0000000000000000       0x18 c:/program files/microchip/xc32/v4.60/bin/bin/../../lib/gcc/pic32mx/8.3.1/../../../../pic32mx/lib\libpic32.a(vector16.o)
 .MIPS.abiflags
                0x0000000000000000       0x18 c:/program files/microchip/xc32/v4.60/bin/bin/../../lib/gcc/pic32mx/8.3.1/../../../../pic32mx/lib\libpic32.a(vector16.o)
 .xc_stack_usage.hdr
                0x0000000000000000        0xe c:/program files/microchip/xc32/v4.60/bin/bin/../../lib/gcc/pic32mx/8.3.1/../../../../pic32mx/lib\libpic32.a(vector16.o)
 .xc_stack_usage
                0x0000000000000000       0x22 c:/program files/microchip/xc32/v4.60/bin/bin/../../lib/gcc/pic32mx/8.3.1/../../../../pic32mx/lib\libpic32.a(vector16.o)
 .text          0x0000000000000000        0x0 c:/program files/microchip/xc32/v4.60/bin/bin/../../lib/gcc/pic32mx/8.3.1/../../../../pic32mx/lib\libpic32.a(vector17.o)
 .data          0x0000000000000000        0x0 c:/program files/microchip/xc32/v4.60/bin/bin/../../lib/gcc/pic32mx/8.3.1/../../../../pic32mx/lib\libpic32.a(vector17.o)
 .bss           0x0000000000000000        0x0 c:/program files/microchip/xc32/v4.60/bin/bin/../../lib/gcc/pic32mx/8.3.1/../../../../pic32mx/lib\libpic32.a(vector17.o)
 .reginfo       0x0000000000000000       0x18 c:/program files/microchip/xc32/v4.60/bin/bin/../../lib/gcc/pic32mx/8.3.1/../../../../pic32mx/lib\libpic32.a(vector17.o)
 .MIPS.abiflags
                0x0000000000000000       0x18 c:/program files/microchip/xc32/v4.60/bin/bin/../../lib/gcc/pic32mx/8.3.1/../../../../pic32mx/lib\libpic32.a(vector17.o)
 .xc_stack_usage.hdr
                0x0000000000000000        0xe c:/program files/microchip/xc32/v4.60/bin/bin/../../lib/gcc/pic32mx/8.3.1/../../../../pic32mx/lib\libpic32.a(vector17.o)
 .xc_stack_usage
                0x0000000000000000       0x22 c:/program files/microchip/xc32/v4.60/bin/bin/../../lib/gcc/pic32mx/8.3.1/../../../../pic32mx/lib\libpic32.a(vector17.o)
 .text          0x0000000000000000        0x0 c:/program files/microchip/xc32/v4.60/bin/bin/../../lib/gcc/pic32mx/8.3.1/../../../../pic32mx/lib\libpic32.a(vector18.o)
 .data          0x0000000000000000        0x0 c:/program files/microchip/xc32/v4.60/bin/bin/../../lib/gcc/pic32mx/8.3.1/../../../../pic32mx/lib\libpic32.a(vector18.o)
 .bss           0x0000000000000000        0x0 c:/program files/microchip/xc32/v4.60/bin/bin/../../lib/gcc/pic32mx/8.3.1/../../../../pic32mx/lib\libpic32.a(vector18.o)
 .reginfo       0x0000000000000000       0x18 c:/program files/microchip/xc32/v4.60/bin/bin/../../lib/gcc/pic32mx/8.3.1/../../../../pic32mx/lib\libpic32.a(vector18.o)
 .MIPS.abiflags
                0x0000000000000000       0x18 c:/program files/microchip/xc32/v4.60/bin/bin/../../lib/gcc/pic32mx/8.3.1/../../../../pic32mx/lib\libpic32.a(vector18.o)
 .xc_stack_usage.hdr
                0x0000000000000000        0xe c:/program files/microchip/xc32/v4.60/bin/bin/../../lib/gcc/pic32mx/8.3.1/../../../../pic32mx/lib\libpic32.a(vector18.o)
 .xc_stack_usage
                0x0000000000000000       0x22 c:/program files/microchip/xc32/v4.60/bin/bin/../../lib/gcc/pic32mx/8.3.1/../../../../pic32mx/lib\libpic32.a(vector18.o)
 .text          0x0000000000000000        0x0 c:/program files/microchip/xc32/v4.60/bin/bin/../../lib/gcc/pic32mx/8.3.1/../../../../pic32mx/lib\libpic32.a(vector19.o)
 .data          0x0000000000000000        0x0 c:/program files/microchip/xc32/v4.60/bin/bin/../../lib/gcc/pic32mx/8.3.1/../../../../pic32mx/lib\libpic32.a(vector19.o)
 .bss           0x0000000000000000        0x0 c:/program files/microchip/xc32/v4.60/bin/bin/../../lib/gcc/pic32mx/8.3.1/../../../../pic32mx/lib\libpic32.a(vector19.o)
 .reginfo       0x0000000000000000       0x18 c:/program files/microchip/xc32/v4.60/bin/bin/../../lib/gcc/pic32mx/8.3.1/../../../../pic32mx/lib\libpic32.a(vector19.o)
 .MIPS.abiflags
                0x0000000000000000       0x18 c:/program files/microchip/xc32/v4.60/bin/bin/../../lib/gcc/pic32mx/8.3.1/../../../../pic32mx/lib\libpic32.a(vector19.o)
 .xc_stack_usage.hdr
                0x0000000000000000        0xe c:/program files/microchip/xc32/v4.60/bin/bin/../../lib/gcc/pic32mx/8.3.1/../../../../pic32mx/lib\libpic32.a(vector19.o)
 .xc_stack_usage
                0x0000000000000000       0x22 c:/program files/microchip/xc32/v4.60/bin/bin/../../lib/gcc/pic32mx/8.3.1/../../../../pic32mx/lib\libpic32.a(vector19.o)
 .text          0x0000000000000000        0x0 c:/program files/microchip/xc32/v4.60/bin/bin/../../lib/gcc/pic32mx/8.3.1/../../../../pic32mx/lib\libpic32.a(vector20.o)
 .data          0x0000000000000000        0x0 c:/program files/microchip/xc32/v4.60/bin/bin/../../lib/gcc/pic32mx/8.3.1/../../../../pic32mx/lib\libpic32.a(vector20.o)
 .bss           0x0000000000000000        0x0 c:/program files/microchip/xc32/v4.60/bin/bin/../../lib/gcc/pic32mx/8.3.1/../../../../pic32mx/lib\libpic32.a(vector20.o)
 .reginfo       0x0000000000000000       0x18 c:/program files/microchip/xc32/v4.60/bin/bin/../../lib/gcc/pic32mx/8.3.1/../../../../pic32mx/lib\libpic32.a(vector20.o)
 .MIPS.abiflags
                0x0000000000000000       0x18 c:/program files/microchip/xc32/v4.60/bin/bin/../../lib/gcc/pic32mx/8.3.1/../../../../pic32mx/lib\libpic32.a(vector20.o)
 .xc_stack_usage.hdr
                0x0000000000000000        0xe c:/program files/microchip/xc32/v4.60/bin/bin/../../lib/gcc/pic32mx/8.3.1/../../../../pic32mx/lib\libpic32.a(vector20.o)
 .xc_stack_usage
                0x0000000000000000       0x22 c:/program files/microchip/xc32/v4.60/bin/bin/../../lib/gcc/pic32mx/8.3.1/../../../../pic32mx/lib\libpic32.a(vector20.o)
 .text          0x0000000000000000        0x0 c:/program files/microchip/xc32/v4.60/bin/bin/../../lib/gcc/pic32mx/8.3.1/../../../../pic32mx/lib\libpic32.a(vector21.o)
 .data          0x0000000000000000        0x0 c:/program files/microchip/xc32/v4.60/bin/bin/../../lib/gcc/pic32mx/8.3.1/../../../../pic32mx/lib\libpic32.a(vector21.o)
 .bss           0x0000000000000000        0x0 c:/program files/microchip/xc32/v4.60/bin/bin/../../lib/gcc/pic32mx/8.3.1/../../../../pic32mx/lib\libpic32.a(vector21.o)
 .reginfo       0x0000000000000000       0x18 c:/program files/microchip/xc32/v4.60/bin/bin/../../lib/gcc/pic32mx/8.3.1/../../../../pic32mx/lib\libpic32.a(vector21.o)
 .MIPS.abiflags
                0x0000000000000000       0x18 c:/program files/microchip/xc32/v4.60/bin/bin/../../lib/gcc/pic32mx/8.3.1/../../../../pic32mx/lib\libpic32.a(vector21.o)
 .xc_stack_usage.hdr
                0x0000000000000000        0xe c:/program files/microchip/xc32/v4.60/bin/bin/../../lib/gcc/pic32mx/8.3.1/../../../../pic32mx/lib\libpic32.a(vector21.o)
 .xc_stack_usage
                0x0000000000000000       0x22 c:/program files/microchip/xc32/v4.60/bin/bin/../../lib/gcc/pic32mx/8.3.1/../../../../pic32mx/lib\libpic32.a(vector21.o)
 .text          0x0000000000000000        0x0 c:/program files/microchip/xc32/v4.60/bin/bin/../../lib/gcc/pic32mx/8.3.1/../../../../pic32mx/lib\libpic32.a(vector22.o)
 .data          0x0000000000000000        0x0 c:/program files/microchip/xc32/v4.60/bin/bin/../../lib/gcc/pic32mx/8.3.1/../../../../pic32mx/lib\libpic32.a(vector22.o)
 .bss           0x0000000000000000        0x0 c:/program files/microchip/xc32/v4.60/bin/bin/../../lib/gcc/pic32mx/8.3.1/../../../../pic32mx/lib\libpic32.a(vector22.o)
 .reginfo       0x0000000000000000       0x18 c:/program files/microchip/xc32/v4.60/bin/bin/../../lib/gcc/pic32mx/8.3.1/../../../../pic32mx/lib\libpic32.a(vector22.o)
 .MIPS.abiflags
                0x0000000000000000       0x18 c:/program files/microchip/xc32/v4.60/bin/bin/../../lib/gcc/pic32mx/8.3.1/../../../../pic32mx/lib\libpic32.a(vector22.o)
 .xc_stack_usage.hdr
                0x0000000000000000        0xe c:/program files/microchip/xc32/v4.60/bin/bin/../../lib/gcc/pic32mx/8.3.1/../../../../pic32mx/lib\libpic32.a(vector22.o)
 .xc_stack_usage
                0x0000000000000000       0x22 c:/program files/microchip/xc32/v4.60/bin/bin/../../lib/gcc/pic32mx/8.3.1/../../../../pic32mx/lib\libpic32.a(vector22.o)
 .text          0x0000000000000000        0x0 c:/program files/microchip/xc32/v4.60/bin/bin/../../lib/gcc/pic32mx/8.3.1/../../../../pic32mx/lib\libpic32.a(vector23.o)
 .data          0x0000000000000000        0x0 c:/program files/microchip/xc32/v4.60/bin/bin/../../lib/gcc/pic32mx/8.3.1/../../../../pic32mx/lib\libpic32.a(vector23.o)
 .bss           0x0000000000000000        0x0 c:/program files/microchip/xc32/v4.60/bin/bin/../../lib/gcc/pic32mx/8.3.1/../../../../pic32mx/lib\libpic32.a(vector23.o)
 .reginfo       0x0000000000000000       0x18 c:/program files/microchip/xc32/v4.60/bin/bin/../../lib/gcc/pic32mx/8.3.1/../../../../pic32mx/lib\libpic32.a(vector23.o)
 .MIPS.abiflags
                0x0000000000000000       0x18 c:/program files/microchip/xc32/v4.60/bin/bin/../../lib/gcc/pic32mx/8.3.1/../../../../pic32mx/lib\libpic32.a(vector23.o)
 .xc_stack_usage.hdr
                0x0000000000000000        0xe c:/program files/microchip/xc32/v4.60/bin/bin/../../lib/gcc/pic32mx/8.3.1/../../../../pic32mx/lib\libpic32.a(vector23.o)
 .xc_stack_usage
                0x0000000000000000       0x22 c:/program files/microchip/xc32/v4.60/bin/bin/../../lib/gcc/pic32mx/8.3.1/../../../../pic32mx/lib\libpic32.a(vector23.o)
 .text          0x0000000000000000        0x0 c:/program files/microchip/xc32/v4.60/bin/bin/../../lib/gcc/pic32mx/8.3.1/../../../../pic32mx/lib\libpic32.a(vector24.o)
 .data          0x0000000000000000        0x0 c:/program files/microchip/xc32/v4.60/bin/bin/../../lib/gcc/pic32mx/8.3.1/../../../../pic32mx/lib\libpic32.a(vector24.o)
 .bss           0x0000000000000000        0x0 c:/program files/microchip/xc32/v4.60/bin/bin/../../lib/gcc/pic32mx/8.3.1/../../../../pic32mx/lib\libpic32.a(vector24.o)
 .reginfo       0x0000000000000000       0x18 c:/program files/microchip/xc32/v4.60/bin/bin/../../lib/gcc/pic32mx/8.3.1/../../../../pic32mx/lib\libpic32.a(vector24.o)
 .MIPS.abiflags
                0x0000000000000000       0x18 c:/program files/microchip/xc32/v4.60/bin/bin/../../lib/gcc/pic32mx/8.3.1/../../../../pic32mx/lib\libpic32.a(vector24.o)
 .xc_stack_usage.hdr
                0x0000000000000000        0xe c:/program files/microchip/xc32/v4.60/bin/bin/../../lib/gcc/pic32mx/8.3.1/../../../../pic32mx/lib\libpic32.a(vector24.o)
 .xc_stack_usage
                0x0000000000000000       0x22 c:/program files/microchip/xc32/v4.60/bin/bin/../../lib/gcc/pic32mx/8.3.1/../../../../pic32mx/lib\libpic32.a(vector24.o)
 .text          0x0000000000000000        0x0 c:/program files/microchip/xc32/v4.60/bin/bin/../../lib/gcc/pic32mx/8.3.1/../../../../pic32mx/lib\libpic32.a(vector25.o)
 .data          0x0000000000000000        0x0 c:/program files/microchip/xc32/v4.60/bin/bin/../../lib/gcc/pic32mx/8.3.1/../../../../pic32mx/lib\libpic32.a(vector25.o)
 .bss           0x0000000000000000        0x0 c:/program files/microchip/xc32/v4.60/bin/bin/../../lib/gcc/pic32mx/8.3.1/../../../../pic32mx/lib\libpic32.a(vector25.o)
 .reginfo       0x0000000000000000       0x18 c:/program files/microchip/xc32/v4.60/bin/bin/../../lib/gcc/pic32mx/8.3.1/../../../../pic32mx/lib\libpic32.a(vector25.o)
 .MIPS.abiflags
                0x0000000000000000       0x18 c:/program files/microchip/xc32/v4.60/bin/bin/../../lib/gcc/pic32mx/8.3.1/../../../../pic32mx/lib\libpic32.a(vector25.o)
 .xc_stack_usage.hdr
                0x0000000000000000        0xe c:/program files/microchip/xc32/v4.60/bin/bin/../../lib/gcc/pic32mx/8.3.1/../../../../pic32mx/lib\libpic32.a(vector25.o)
 .xc_stack_usage
                0x0000000000000000       0x22 c:/program files/microchip/xc32/v4.60/bin/bin/../../lib/gcc/pic32mx/8.3.1/../../../../pic32mx/lib\libpic32.a(vector25.o)
 .text          0x0000000000000000        0x0 c:/program files/microchip/xc32/v4.60/bin/bin/../../lib/gcc/pic32mx/8.3.1/../../../../pic32mx/lib\libpic32.a(vector26.o)
 .data          0x0000000000000000        0x0 c:/program files/microchip/xc32/v4.60/bin/bin/../../lib/gcc/pic32mx/8.3.1/../../../../pic32mx/lib\libpic32.a(vector26.o)
 .bss           0x0000000000000000        0x0 c:/program files/microchip/xc32/v4.60/bin/bin/../../lib/gcc/pic32mx/8.3.1/../../../../pic32mx/lib\libpic32.a(vector26.o)
 .reginfo       0x0000000000000000       0x18 c:/program files/microchip/xc32/v4.60/bin/bin/../../lib/gcc/pic32mx/8.3.1/../../../../pic32mx/lib\libpic32.a(vector26.o)
 .MIPS.abiflags
                0x0000000000000000       0x18 c:/program files/microchip/xc32/v4.60/bin/bin/../../lib/gcc/pic32mx/8.3.1/../../../../pic32mx/lib\libpic32.a(vector26.o)
 .xc_stack_usage.hdr
                0x0000000000000000        0xe c:/program files/microchip/xc32/v4.60/bin/bin/../../lib/gcc/pic32mx/8.3.1/../../../../pic32mx/lib\libpic32.a(vector26.o)
 .xc_stack_usage
                0x0000000000000000       0x22 c:/program files/microchip/xc32/v4.60/bin/bin/../../lib/gcc/pic32mx/8.3.1/../../../../pic32mx/lib\libpic32.a(vector26.o)
 .text          0x0000000000000000        0x0 c:/program files/microchip/xc32/v4.60/bin/bin/../../lib/gcc/pic32mx/8.3.1/../../../../pic32mx/lib\libpic32.a(vector27.o)
 .data          0x0000000000000000        0x0 c:/program files/microchip/xc32/v4.60/bin/bin/../../lib/gcc/pic32mx/8.3.1/../../../../pic32mx/lib\libpic32.a(vector27.o)
 .bss           0x0000000000000000        0x0 c:/program files/microchip/xc32/v4.60/bin/bin/../../lib/gcc/pic32mx/8.3.1/../../../../pic32mx/lib\libpic32.a(vector27.o)
 .reginfo       0x0000000000000000       0x18 c:/program files/microchip/xc32/v4.60/bin/bin/../../lib/gcc/pic32mx/8.3.1/../../../../pic32mx/lib\libpic32.a(vector27.o)
 .MIPS.abiflags
                0x0000000000000000       0x18 c:/program files/microchip/xc32/v4.60/bin/bin/../../lib/gcc/pic32mx/8.3.1/../../../../pic32mx/lib\libpic32.a(vector27.o)
 .xc_stack_usage.hdr
                0x0000000000000000        0xe c:/program files/microchip/xc32/v4.60/bin/bin/../../lib/gcc/pic32mx/8.3.1/../../../../pic32mx/lib\libpic32.a(vector27.o)
 .xc_stack_usage
                0x0000000000000000       0x22 c:/program files/microchip/xc32/v4.60/bin/bin/../../lib/gcc/pic32mx/8.3.1/../../../../pic32mx/lib\libpic32.a(vector27.o)
 .text          0x0000000000000000        0x0 c:/program files/microchip/xc32/v4.60/bin/bin/../../lib/gcc/pic32mx/8.3.1/../../../../pic32mx/lib\libpic32.a(vector28.o)
 .data          0x0000000000000000        0x0 c:/program files/microchip/xc32/v4.60/bin/bin/../../lib/gcc/pic32mx/8.3.1/../../../../pic32mx/lib\libpic32.a(vector28.o)
 .bss           0x0000000000000000        0x0 c:/program files/microchip/xc32/v4.60/bin/bin/../../lib/gcc/pic32mx/8.3.1/../../../../pic32mx/lib\libpic32.a(vector28.o)
 .reginfo       0x0000000000000000       0x18 c:/program files/microchip/xc32/v4.60/bin/bin/../../lib/gcc/pic32mx/8.3.1/../../../../pic32mx/lib\libpic32.a(vector28.o)
 .MIPS.abiflags
                0x0000000000000000       0x18 c:/program files/microchip/xc32/v4.60/bin/bin/../../lib/gcc/pic32mx/8.3.1/../../../../pic32mx/lib\libpic32.a(vector28.o)
 .xc_stack_usage.hdr
                0x0000000000000000        0xe c:/program files/microchip/xc32/v4.60/bin/bin/../../lib/gcc/pic32mx/8.3.1/../../../../pic32mx/lib\libpic32.a(vector28.o)
 .xc_stack_usage
                0x0000000000000000       0x22 c:/program files/microchip/xc32/v4.60/bin/bin/../../lib/gcc/pic32mx/8.3.1/../../../../pic32mx/lib\libpic32.a(vector28.o)
 .text          0x0000000000000000        0x0 c:/program files/microchip/xc32/v4.60/bin/bin/../../lib/gcc/pic32mx/8.3.1/../../../../pic32mx/lib\libpic32.a(vector29.o)
 .data          0x0000000000000000        0x0 c:/program files/microchip/xc32/v4.60/bin/bin/../../lib/gcc/pic32mx/8.3.1/../../../../pic32mx/lib\libpic32.a(vector29.o)
 .bss           0x0000000000000000        0x0 c:/program files/microchip/xc32/v4.60/bin/bin/../../lib/gcc/pic32mx/8.3.1/../../../../pic32mx/lib\libpic32.a(vector29.o)
 .reginfo       0x0000000000000000       0x18 c:/program files/microchip/xc32/v4.60/bin/bin/../../lib/gcc/pic32mx/8.3.1/../../../../pic32mx/lib\libpic32.a(vector29.o)
 .MIPS.abiflags
                0x0000000000000000       0x18 c:/program files/microchip/xc32/v4.60/bin/bin/../../lib/gcc/pic32mx/8.3.1/../../../../pic32mx/lib\libpic32.a(vector29.o)
 .xc_stack_usage.hdr
                0x0000000000000000        0xe c:/program files/microchip/xc32/v4.60/bin/bin/../../lib/gcc/pic32mx/8.3.1/../../../../pic32mx/lib\libpic32.a(vector29.o)
 .xc_stack_usage
                0x0000000000000000       0x22 c:/program files/microchip/xc32/v4.60/bin/bin/../../lib/gcc/pic32mx/8.3.1/../../../../pic32mx/lib\libpic32.a(vector29.o)
 .text          0x0000000000000000        0x0 c:/program files/microchip/xc32/v4.60/bin/bin/../../lib/gcc/pic32mx/8.3.1/../../../../pic32mx/lib\libpic32.a(vector31.o)
 .data          0x0000000000000000        0x0 c:/program files/microchip/xc32/v4.60/bin/bin/../../lib/gcc/pic32mx/8.3.1/../../../../pic32mx/lib\libpic32.a(vector31.o)
 .bss           0x0000000000000000        0x0 c:/program files/microchip/xc32/v4.60/bin/bin/../../lib/gcc/pic32mx/8.3.1/../../../../pic32mx/lib\libpic32.a(vector31.o)
 .reginfo       0x0000000000000000       0x18 c:/program files/microchip/xc32/v4.60/bin/bin/../../lib/gcc/pic32mx/8.3.1/../../../../pic32mx/lib\libpic32.a(vector31.o)
 .MIPS.abiflags
                0x0000000000000000       0x18 c:/program files/microchip/xc32/v4.60/bin/bin/../../lib/gcc/pic32mx/8.3.1/../../../../pic32mx/lib\libpic32.a(vector31.o)
 .xc_stack_usage.hdr
                0x0000000000000000        0xe c:/program files/microchip/xc32/v4.60/bin/bin/../../lib/gcc/pic32mx/8.3.1/../../../../pic32mx/lib\libpic32.a(vector31.o)
 .xc_stack_usage
                0x0000000000000000       0x22 c:/program files/microchip/xc32/v4.60/bin/bin/../../lib/gcc/pic32mx/8.3.1/../../../../pic32mx/lib\libpic32.a(vector31.o)
 .text          0x0000000000000000        0x0 c:/program files/microchip/xc32/v4.60/bin/bin/../../lib/gcc/pic32mx/8.3.1/../../../../pic32mx/lib\libpic32.a(vector32.o)
 .data          0x0000000000000000        0x0 c:/program files/microchip/xc32/v4.60/bin/bin/../../lib/gcc/pic32mx/8.3.1/../../../../pic32mx/lib\libpic32.a(vector32.o)
 .bss           0x0000000000000000        0x0 c:/program files/microchip/xc32/v4.60/bin/bin/../../lib/gcc/pic32mx/8.3.1/../../../../pic32mx/lib\libpic32.a(vector32.o)
 .reginfo       0x0000000000000000       0x18 c:/program files/microchip/xc32/v4.60/bin/bin/../../lib/gcc/pic32mx/8.3.1/../../../../pic32mx/lib\libpic32.a(vector32.o)
 .MIPS.abiflags
                0x0000000000000000       0x18 c:/program files/microchip/xc32/v4.60/bin/bin/../../lib/gcc/pic32mx/8.3.1/../../../../pic32mx/lib\libpic32.a(vector32.o)
 .xc_stack_usage.hdr
                0x0000000000000000        0xe c:/program files/microchip/xc32/v4.60/bin/bin/../../lib/gcc/pic32mx/8.3.1/../../../../pic32mx/lib\libpic32.a(vector32.o)
 .xc_stack_usage
                0x0000000000000000       0x22 c:/program files/microchip/xc32/v4.60/bin/bin/../../lib/gcc/pic32mx/8.3.1/../../../../pic32mx/lib\libpic32.a(vector32.o)
 .text          0x0000000000000000        0x0 c:/program files/microchip/xc32/v4.60/bin/bin/../../lib/gcc/pic32mx/8.3.1/../../../../pic32mx/lib\libpic32.a(vector33.o)
 .data          0x0000000000000000        0x0 c:/program files/microchip/xc32/v4.60/bin/bin/../../lib/gcc/pic32mx/8.3.1/../../../../pic32mx/lib\libpic32.a(vector33.o)
 .bss           0x0000000000000000        0x0 c:/program files/microchip/xc32/v4.60/bin/bin/../../lib/gcc/pic32mx/8.3.1/../../../../pic32mx/lib\libpic32.a(vector33.o)
 .reginfo       0x0000000000000000       0x18 c:/program files/microchip/xc32/v4.60/bin/bin/../../lib/gcc/pic32mx/8.3.1/../../../../pic32mx/lib\libpic32.a(vector33.o)
 .MIPS.abiflags
                0x0000000000000000       0x18 c:/program files/microchip/xc32/v4.60/bin/bin/../../lib/gcc/pic32mx/8.3.1/../../../../pic32mx/lib\libpic32.a(vector33.o)
 .xc_stack_usage.hdr
                0x0000000000000000        0xe c:/program files/microchip/xc32/v4.60/bin/bin/../../lib/gcc/pic32mx/8.3.1/../../../../pic32mx/lib\libpic32.a(vector33.o)
 .xc_stack_usage
                0x0000000000000000       0x22 c:/program files/microchip/xc32/v4.60/bin/bin/../../lib/gcc/pic32mx/8.3.1/../../../../pic32mx/lib\libpic32.a(vector33.o)
 .text          0x0000000000000000        0x0 c:/program files/microchip/xc32/v4.60/bin/bin/../../lib/gcc/pic32mx/8.3.1/../../../../pic32mx/lib\libpic32.a(vector34.o)
 .data          0x0000000000000000        0x0 c:/program files/microchip/xc32/v4.60/bin/bin/../../lib/gcc/pic32mx/8.3.1/../../../../pic32mx/lib\libpic32.a(vector34.o)
 .bss           0x0000000000000000        0x0 c:/program files/microchip/xc32/v4.60/bin/bin/../../lib/gcc/pic32mx/8.3.1/../../../../pic32mx/lib\libpic32.a(vector34.o)
 .reginfo       0x0000000000000000       0x18 c:/program files/microchip/xc32/v4.60/bin/bin/../../lib/gcc/pic32mx/8.3.1/../../../../pic32mx/lib\libpic32.a(vector34.o)
 .MIPS.abiflags
                0x0000000000000000       0x18 c:/program files/microchip/xc32/v4.60/bin/bin/../../lib/gcc/pic32mx/8.3.1/../../../../pic32mx/lib\libpic32.a(vector34.o)
 .xc_stack_usage.hdr
                0x0000000000000000        0xe c:/program files/microchip/xc32/v4.60/bin/bin/../../lib/gcc/pic32mx/8.3.1/../../../../pic32mx/lib\libpic32.a(vector34.o)
 .xc_stack_usage
                0x0000000000000000       0x22 c:/program files/microchip/xc32/v4.60/bin/bin/../../lib/gcc/pic32mx/8.3.1/../../../../pic32mx/lib\libpic32.a(vector34.o)
 .text          0x0000000000000000        0x0 c:/program files/microchip/xc32/v4.60/bin/bin/../../lib/gcc/pic32mx/8.3.1/../../../../pic32mx/lib\libpic32.a(vector35.o)
 .data          0x0000000000000000        0x0 c:/program files/microchip/xc32/v4.60/bin/bin/../../lib/gcc/pic32mx/8.3.1/../../../../pic32mx/lib\libpic32.a(vector35.o)
 .bss           0x0000000000000000        0x0 c:/program files/microchip/xc32/v4.60/bin/bin/../../lib/gcc/pic32mx/8.3.1/../../../../pic32mx/lib\libpic32.a(vector35.o)
 .reginfo       0x0000000000000000       0x18 c:/program files/microchip/xc32/v4.60/bin/bin/../../lib/gcc/pic32mx/8.3.1/../../../../pic32mx/lib\libpic32.a(vector35.o)
 .MIPS.abiflags
                0x0000000000000000       0x18 c:/program files/microchip/xc32/v4.60/bin/bin/../../lib/gcc/pic32mx/8.3.1/../../../../pic32mx/lib\libpic32.a(vector35.o)
 .xc_stack_usage.hdr
                0x0000000000000000        0xe c:/program files/microchip/xc32/v4.60/bin/bin/../../lib/gcc/pic32mx/8.3.1/../../../../pic32mx/lib\libpic32.a(vector35.o)
 .xc_stack_usage
                0x0000000000000000       0x22 c:/program files/microchip/xc32/v4.60/bin/bin/../../lib/gcc/pic32mx/8.3.1/../../../../pic32mx/lib\libpic32.a(vector35.o)
 .text          0x0000000000000000        0x0 c:/program files/microchip/xc32/v4.60/bin/bin/../../lib/gcc/pic32mx/8.3.1/../../../../pic32mx/lib\libpic32.a(vector36.o)
 .data          0x0000000000000000        0x0 c:/program files/microchip/xc32/v4.60/bin/bin/../../lib/gcc/pic32mx/8.3.1/../../../../pic32mx/lib\libpic32.a(vector36.o)
 .bss           0x0000000000000000        0x0 c:/program files/microchip/xc32/v4.60/bin/bin/../../lib/gcc/pic32mx/8.3.1/../../../../pic32mx/lib\libpic32.a(vector36.o)
 .reginfo       0x0000000000000000       0x18 c:/program files/microchip/xc32/v4.60/bin/bin/../../lib/gcc/pic32mx/8.3.1/../../../../pic32mx/lib\libpic32.a(vector36.o)
 .MIPS.abiflags
                0x0000000000000000       0x18 c:/program files/microchip/xc32/v4.60/bin/bin/../../lib/gcc/pic32mx/8.3.1/../../../../pic32mx/lib\libpic32.a(vector36.o)
 .xc_stack_usage.hdr
                0x0000000000000000        0xe c:/program files/microchip/xc32/v4.60/bin/bin/../../lib/gcc/pic32mx/8.3.1/../../../../pic32mx/lib\libpic32.a(vector36.o)
 .xc_stack_usage
                0x0000000000000000       0x22 c:/program files/microchip/xc32/v4.60/bin/bin/../../lib/gcc/pic32mx/8.3.1/../../../../pic32mx/lib\libpic32.a(vector36.o)
 .text          0x0000000000000000        0x0 c:/program files/microchip/xc32/v4.60/bin/bin/../../lib/gcc/pic32mx/8.3.1/../../../../pic32mx/lib\libpic32.a(vector37.o)
 .data          0x0000000000000000        0x0 c:/program files/microchip/xc32/v4.60/bin/bin/../../lib/gcc/pic32mx/8.3.1/../../../../pic32mx/lib\libpic32.a(vector37.o)
 .bss           0x0000000000000000        0x0 c:/program files/microchip/xc32/v4.60/bin/bin/../../lib/gcc/pic32mx/8.3.1/../../../../pic32mx/lib\libpic32.a(vector37.o)
 .reginfo       0x0000000000000000       0x18 c:/program files/microchip/xc32/v4.60/bin/bin/../../lib/gcc/pic32mx/8.3.1/../../../../pic32mx/lib\libpic32.a(vector37.o)
 .MIPS.abiflags
                0x0000000000000000       0x18 c:/program files/microchip/xc32/v4.60/bin/bin/../../lib/gcc/pic32mx/8.3.1/../../../../pic32mx/lib\libpic32.a(vector37.o)
 .xc_stack_usage.hdr
                0x0000000000000000        0xe c:/program files/microchip/xc32/v4.60/bin/bin/../../lib/gcc/pic32mx/8.3.1/../../../../pic32mx/lib\libpic32.a(vector37.o)
 .xc_stack_usage
                0x0000000000000000       0x22 c:/program files/microchip/xc32/v4.60/bin/bin/../../lib/gcc/pic32mx/8.3.1/../../../../pic32mx/lib\libpic32.a(vector37.o)
 .text          0x0000000000000000        0x0 c:/program files/microchip/xc32/v4.60/bin/bin/../../lib/gcc/pic32mx/8.3.1/../../../../pic32mx/lib\libpic32.a(vector38.o)
 .data          0x0000000000000000        0x0 c:/program files/microchip/xc32/v4.60/bin/bin/../../lib/gcc/pic32mx/8.3.1/../../../../pic32mx/lib\libpic32.a(vector38.o)
 .bss           0x0000000000000000        0x0 c:/program files/microchip/xc32/v4.60/bin/bin/../../lib/gcc/pic32mx/8.3.1/../../../../pic32mx/lib\libpic32.a(vector38.o)
 .reginfo       0x0000000000000000       0x18 c:/program files/microchip/xc32/v4.60/bin/bin/../../lib/gcc/pic32mx/8.3.1/../../../../pic32mx/lib\libpic32.a(vector38.o)
 .MIPS.abiflags
                0x0000000000000000       0x18 c:/program files/microchip/xc32/v4.60/bin/bin/../../lib/gcc/pic32mx/8.3.1/../../../../pic32mx/lib\libpic32.a(vector38.o)
 .xc_stack_usage.hdr
                0x0000000000000000        0xe c:/program files/microchip/xc32/v4.60/bin/bin/../../lib/gcc/pic32mx/8.3.1/../../../../pic32mx/lib\libpic32.a(vector38.o)
 .xc_stack_usage
                0x0000000000000000       0x22 c:/program files/microchip/xc32/v4.60/bin/bin/../../lib/gcc/pic32mx/8.3.1/../../../../pic32mx/lib\libpic32.a(vector38.o)
 .text          0x0000000000000000        0x0 c:/program files/microchip/xc32/v4.60/bin/bin/../../lib/gcc/pic32mx/8.3.1/../../../../pic32mx/lib\libpic32.a(vector39.o)
 .data          0x0000000000000000        0x0 c:/program files/microchip/xc32/v4.60/bin/bin/../../lib/gcc/pic32mx/8.3.1/../../../../pic32mx/lib\libpic32.a(vector39.o)
 .bss           0x0000000000000000        0x0 c:/program files/microchip/xc32/v4.60/bin/bin/../../lib/gcc/pic32mx/8.3.1/../../../../pic32mx/lib\libpic32.a(vector39.o)
 .reginfo       0x0000000000000000       0x18 c:/program files/microchip/xc32/v4.60/bin/bin/../../lib/gcc/pic32mx/8.3.1/../../../../pic32mx/lib\libpic32.a(vector39.o)
 .MIPS.abiflags
                0x0000000000000000       0x18 c:/program files/microchip/xc32/v4.60/bin/bin/../../lib/gcc/pic32mx/8.3.1/../../../../pic32mx/lib\libpic32.a(vector39.o)
 .xc_stack_usage.hdr
                0x0000000000000000        0xe c:/program files/microchip/xc32/v4.60/bin/bin/../../lib/gcc/pic32mx/8.3.1/../../../../pic32mx/lib\libpic32.a(vector39.o)
 .xc_stack_usage
                0x0000000000000000       0x22 c:/program files/microchip/xc32/v4.60/bin/bin/../../lib/gcc/pic32mx/8.3.1/../../../../pic32mx/lib\libpic32.a(vector39.o)
 .text          0x0000000000000000        0x0 c:/program files/microchip/xc32/v4.60/bin/bin/../../lib/gcc/pic32mx/8.3.1/../../../../pic32mx/lib\libpic32.a(vector40.o)
 .data          0x0000000000000000        0x0 c:/program files/microchip/xc32/v4.60/bin/bin/../../lib/gcc/pic32mx/8.3.1/../../../../pic32mx/lib\libpic32.a(vector40.o)
 .bss           0x0000000000000000        0x0 c:/program files/microchip/xc32/v4.60/bin/bin/../../lib/gcc/pic32mx/8.3.1/../../../../pic32mx/lib\libpic32.a(vector40.o)
 .reginfo       0x0000000000000000       0x18 c:/program files/microchip/xc32/v4.60/bin/bin/../../lib/gcc/pic32mx/8.3.1/../../../../pic32mx/lib\libpic32.a(vector40.o)
 .MIPS.abiflags
                0x0000000000000000       0x18 c:/program files/microchip/xc32/v4.60/bin/bin/../../lib/gcc/pic32mx/8.3.1/../../../../pic32mx/lib\libpic32.a(vector40.o)
 .xc_stack_usage.hdr
                0x0000000000000000        0xe c:/program files/microchip/xc32/v4.60/bin/bin/../../lib/gcc/pic32mx/8.3.1/../../../../pic32mx/lib\libpic32.a(vector40.o)
 .xc_stack_usage
                0x0000000000000000       0x22 c:/program files/microchip/xc32/v4.60/bin/bin/../../lib/gcc/pic32mx/8.3.1/../../../../pic32mx/lib\libpic32.a(vector40.o)
 .text          0x0000000000000000        0x0 c:/program files/microchip/xc32/v4.60/bin/bin/../../lib/gcc/pic32mx/8.3.1/../../../../pic32mx/lib\libpic32.a(vector41.o)
 .data          0x0000000000000000        0x0 c:/program files/microchip/xc32/v4.60/bin/bin/../../lib/gcc/pic32mx/8.3.1/../../../../pic32mx/lib\libpic32.a(vector41.o)
 .bss           0x0000000000000000        0x0 c:/program files/microchip/xc32/v4.60/bin/bin/../../lib/gcc/pic32mx/8.3.1/../../../../pic32mx/lib\libpic32.a(vector41.o)
 .reginfo       0x0000000000000000       0x18 c:/program files/microchip/xc32/v4.60/bin/bin/../../lib/gcc/pic32mx/8.3.1/../../../../pic32mx/lib\libpic32.a(vector41.o)
 .MIPS.abiflags
                0x0000000000000000       0x18 c:/program files/microchip/xc32/v4.60/bin/bin/../../lib/gcc/pic32mx/8.3.1/../../../../pic32mx/lib\libpic32.a(vector41.o)
 .xc_stack_usage.hdr
                0x0000000000000000        0xe c:/program files/microchip/xc32/v4.60/bin/bin/../../lib/gcc/pic32mx/8.3.1/../../../../pic32mx/lib\libpic32.a(vector41.o)
 .xc_stack_usage
                0x0000000000000000       0x22 c:/program files/microchip/xc32/v4.60/bin/bin/../../lib/gcc/pic32mx/8.3.1/../../../../pic32mx/lib\libpic32.a(vector41.o)
 .text          0x0000000000000000        0x0 c:/program files/microchip/xc32/v4.60/bin/bin/../../lib/gcc/pic32mx/8.3.1/../../../../pic32mx/lib\libpic32.a(vector42.o)
 .data          0x0000000000000000        0x0 c:/program files/microchip/xc32/v4.60/bin/bin/../../lib/gcc/pic32mx/8.3.1/../../../../pic32mx/lib\libpic32.a(vector42.o)
 .bss           0x0000000000000000        0x0 c:/program files/microchip/xc32/v4.60/bin/bin/../../lib/gcc/pic32mx/8.3.1/../../../../pic32mx/lib\libpic32.a(vector42.o)
 .reginfo       0x0000000000000000       0x18 c:/program files/microchip/xc32/v4.60/bin/bin/../../lib/gcc/pic32mx/8.3.1/../../../../pic32mx/lib\libpic32.a(vector42.o)
 .MIPS.abiflags
                0x0000000000000000       0x18 c:/program files/microchip/xc32/v4.60/bin/bin/../../lib/gcc/pic32mx/8.3.1/../../../../pic32mx/lib\libpic32.a(vector42.o)
 .xc_stack_usage.hdr
                0x0000000000000000        0xe c:/program files/microchip/xc32/v4.60/bin/bin/../../lib/gcc/pic32mx/8.3.1/../../../../pic32mx/lib\libpic32.a(vector42.o)
 .xc_stack_usage
                0x0000000000000000       0x22 c:/program files/microchip/xc32/v4.60/bin/bin/../../lib/gcc/pic32mx/8.3.1/../../../../pic32mx/lib\libpic32.a(vector42.o)
 .text          0x0000000000000000        0x0 c:/program files/microchip/xc32/v4.60/bin/bin/../../lib/gcc/pic32mx/8.3.1/../../../../pic32mx/lib\libpic32.a(vector43.o)
 .data          0x0000000000000000        0x0 c:/program files/microchip/xc32/v4.60/bin/bin/../../lib/gcc/pic32mx/8.3.1/../../../../pic32mx/lib\libpic32.a(vector43.o)
 .bss           0x0000000000000000        0x0 c:/program files/microchip/xc32/v4.60/bin/bin/../../lib/gcc/pic32mx/8.3.1/../../../../pic32mx/lib\libpic32.a(vector43.o)
 .reginfo       0x0000000000000000       0x18 c:/program files/microchip/xc32/v4.60/bin/bin/../../lib/gcc/pic32mx/8.3.1/../../../../pic32mx/lib\libpic32.a(vector43.o)
 .MIPS.abiflags
                0x0000000000000000       0x18 c:/program files/microchip/xc32/v4.60/bin/bin/../../lib/gcc/pic32mx/8.3.1/../../../../pic32mx/lib\libpic32.a(vector43.o)
 .xc_stack_usage.hdr
                0x0000000000000000        0xe c:/program files/microchip/xc32/v4.60/bin/bin/../../lib/gcc/pic32mx/8.3.1/../../../../pic32mx/lib\libpic32.a(vector43.o)
 .xc_stack_usage
                0x0000000000000000       0x22 c:/program files/microchip/xc32/v4.60/bin/bin/../../lib/gcc/pic32mx/8.3.1/../../../../pic32mx/lib\libpic32.a(vector43.o)
 .text          0x0000000000000000        0x0 c:/program files/microchip/xc32/v4.60/bin/bin/../../lib/gcc/pic32mx/8.3.1/../../../../pic32mx/lib\libpic32.a(defaultinterrupt.o)
 .data          0x0000000000000000        0x0 c:/program files/microchip/xc32/v4.60/bin/bin/../../lib/gcc/pic32mx/8.3.1/../../../../pic32mx/lib\libpic32.a(defaultinterrupt.o)
 .bss           0x0000000000000000        0x0 c:/program files/microchip/xc32/v4.60/bin/bin/../../lib/gcc/pic32mx/8.3.1/../../../../pic32mx/lib\libpic32.a(defaultinterrupt.o)
 .reginfo       0x0000000000000000       0x18 c:/program files/microchip/xc32/v4.60/bin/bin/../../lib/gcc/pic32mx/8.3.1/../../../../pic32mx/lib\libpic32.a(defaultinterrupt.o)
 .MIPS.abiflags
                0x0000000000000000       0x18 c:/program files/microchip/xc32/v4.60/bin/bin/../../lib/gcc/pic32mx/8.3.1/../../../../pic32mx/lib\libpic32.a(defaultinterrupt.o)
 .xc_stack_usage
                0x0000000000000000       0x1f c:/program files/microchip/xc32/v4.60/bin/bin/../../lib/gcc/pic32mx/8.3.1/../../../../pic32mx/lib\libpic32.a(defaultinterrupt.o)
 .xc_stack_usage.hdr
                0x0000000000000000        0xe c:/program files/microchip/xc32/v4.60/bin/bin/../../lib/gcc/pic32mx/8.3.1/../../../../pic32mx/lib\libpic32.a(defaultinterrupt.o)
 .text          0x0000000000000000        0x0 c:/program files/microchip/xc32/v4.60/bin/bin/../../lib/gcc/pic32mx/8.3.1/../../../../pic32mx/lib\libc-size-musl.a(memcmp.o)
 .data          0x0000000000000000        0x0 c:/program files/microchip/xc32/v4.60/bin/bin/../../lib/gcc/pic32mx/8.3.1/../../../../pic32mx/lib\libc-size-musl.a(memcmp.o)
 .bss           0x0000000000000000        0x0 c:/program files/microchip/xc32/v4.60/bin/bin/../../lib/gcc/pic32mx/8.3.1/../../../../pic32mx/lib\libc-size-musl.a(memcmp.o)
 .reginfo       0x0000000000000000       0x18 c:/program files/microchip/xc32/v4.60/bin/bin/../../lib/gcc/pic32mx/8.3.1/../../../../pic32mx/lib\libc-size-musl.a(memcmp.o)
 .MIPS.abiflags
                0x0000000000000000       0x18 c:/program files/microchip/xc32/v4.60/bin/bin/../../lib/gcc/pic32mx/8.3.1/../../../../pic32mx/lib\libc-size-musl.a(memcmp.o)
 .xc_stack_usage
                0x0000000000000000       0x14 c:/program files/microchip/xc32/v4.60/bin/bin/../../lib/gcc/pic32mx/8.3.1/../../../../pic32mx/lib\libc-size-musl.a(memcmp.o)
 .xc_stack_usage.hdr
                0x0000000000000000        0xe c:/program files/microchip/xc32/v4.60/bin/bin/../../lib/gcc/pic32mx/8.3.1/../../../../pic32mx/lib\libc-size-musl.a(memcmp.o)
 .note.GNU-stack
                0x0000000000000000        0x0 c:/program files/microchip/xc32/v4.60/bin/bin/../../lib/gcc/pic32mx/8.3.1/../../../../pic32mx/lib\libc-size-musl.a(memcmp.o)
 .text          0x0000000000000000        0x0 c:/program files/microchip/xc32/v4.60/bin/bin/../../lib/gcc/pic32mx/8.3.1/../../../../pic32mx/lib\libc-size-musl.a(memcpy.o)
 .data          0x0000000000000000        0x0 c:/program files/microchip/xc32/v4.60/bin/bin/../../lib/gcc/pic32mx/8.3.1/../../../../pic32mx/lib\libc-size-musl.a(memcpy.o)
 .bss           0x0000000000000000        0x0 c:/program files/microchip/xc32/v4.60/bin/bin/../../lib/gcc/pic32mx/8.3.1/../../../../pic32mx/lib\libc-size-musl.a(memcpy.o)
 .reginfo       0x0000000000000000       0x18 c:/program files/microchip/xc32/v4.60/bin/bin/../../lib/gcc/pic32mx/8.3.1/../../../../pic32mx/lib\libc-size-musl.a(memcpy.o)
 .MIPS.abiflags
                0x0000000000000000       0x18 c:/program files/microchip/xc32/v4.60/bin/bin/../../lib/gcc/pic32mx/8.3.1/../../../../pic32mx/lib\libc-size-musl.a(memcpy.o)
 .xc_stack_usage
                0x0000000000000000       0x14 c:/program files/microchip/xc32/v4.60/bin/bin/../../lib/gcc/pic32mx/8.3.1/../../../../pic32mx/lib\libc-size-musl.a(memcpy.o)
 .xc_stack_usage.hdr
                0x0000000000000000        0xe c:/program files/microchip/xc32/v4.60/bin/bin/../../lib/gcc/pic32mx/8.3.1/../../../../pic32mx/lib\libc-size-musl.a(memcpy.o)
 .note.GNU-stack
                0x0000000000000000        0x0 c:/program files/microchip/xc32/v4.60/bin/bin/../../lib/gcc/pic32mx/8.3.1/../../../../pic32mx/lib\libc-size-musl.a(memcpy.o)
 .text          0x0000000000000000        0x0 c:/program files/microchip/xc32/v4.60/bin/bin/../../lib/gcc/pic32mx/8.3.1/../../../../pic32mx/lib\libc-size-musl.a(memset.o)
 .data          0x0000000000000000        0x0 c:/program files/microchip/xc32/v4.60/bin/bin/../../lib/gcc/pic32mx/8.3.1/../../../../pic32mx/lib\libc-size-musl.a(memset.o)
 .bss           0x0000000000000000        0x0 c:/program files/microchip/xc32/v4.60/bin/bin/../../lib/gcc/pic32mx/8.3.1/../../../../pic32mx/lib\libc-size-musl.a(memset.o)
 .reginfo       0x0000000000000000       0x18 c:/program files/microchip/xc32/v4.60/bin/bin/../../lib/gcc/pic32mx/8.3.1/../../../../pic32mx/lib\libc-size-musl.a(memset.o)
 .MIPS.abiflags
                0x0000000000000000       0x18 c:/program files/microchip/xc32/v4.60/bin/bin/../../lib/gcc/pic32mx/8.3.1/../../../../pic32mx/lib\libc-size-musl.a(memset.o)
 .xc_stack_usage
                0x0000000000000000       0x14 c:/program files/microchip/xc32/v4.60/bin/bin/../../lib/gcc/pic32mx/8.3.1/../../../../pic32mx/lib\libc-size-musl.a(memset.o)
 .xc_stack_usage.hdr
                0x0000000000000000        0xe c:/program files/microchip/xc32/v4.60/bin/bin/../../lib/gcc/pic32mx/8.3.1/../../../../pic32mx/lib\libc-size-musl.a(memset.o)
 .note.GNU-stack
                0x0000000000000000        0x0 c:/program files/microchip/xc32/v4.60/bin/bin/../../lib/gcc/pic32mx/8.3.1/../../../../pic32mx/lib\libc-size-musl.a(memset.o)
 .data          0x0000000000000000        0x0 c:/program files/microchip/xc32/v4.60/bin/bin/../../lib/gcc/pic32mx/8.3.1/../../../../pic32mx/lib\libpic32.a(pic32_data_init_clear.o)
 .bss           0x0000000000000000        0x0 c:/program files/microchip/xc32/v4.60/bin/bin/../../lib/gcc/pic32mx/8.3.1/../../../../pic32mx/lib\libpic32.a(pic32_data_init_clear.o)
 .reginfo       0x0000000000000000       0x18 c:/program files/microchip/xc32/v4.60/bin/bin/../../lib/gcc/pic32mx/8.3.1/../../../../pic32mx/lib\libpic32.a(pic32_data_init_clear.o)
 .MIPS.abiflags
                0x0000000000000000       0x18 c:/program files/microchip/xc32/v4.60/bin/bin/../../lib/gcc/pic32mx/8.3.1/../../../../pic32mx/lib\libpic32.a(pic32_data_init_clear.o)
 .xc_stack_usage.hdr
                0x0000000000000000        0xe c:/program files/microchip/xc32/v4.60/bin/bin/../../lib/gcc/pic32mx/8.3.1/../../../../pic32mx/lib\libpic32.a(pic32_data_init_clear.o)
 .xc_stack_usage
                0x0000000000000000       0x1b c:/program files/microchip/xc32/v4.60/bin/bin/../../lib/gcc/pic32mx/8.3.1/../../../../pic32mx/lib\libpic32.a(pic32_data_init_clear.o)
 .data          0x0000000000000000        0x0 c:/program files/microchip/xc32/v4.60/bin/bin/../../lib/gcc/pic32mx/8.3.1/../../../../pic32mx/lib\libpic32.a(pic32_data_init_copy.o)
 .bss           0x0000000000000000        0x0 c:/program files/microchip/xc32/v4.60/bin/bin/../../lib/gcc/pic32mx/8.3.1/../../../../pic32mx/lib\libpic32.a(pic32_data_init_copy.o)
 .reginfo       0x0000000000000000       0x18 c:/program files/microchip/xc32/v4.60/bin/bin/../../lib/gcc/pic32mx/8.3.1/../../../../pic32mx/lib\libpic32.a(pic32_data_init_copy.o)
 .MIPS.abiflags
                0x0000000000000000       0x18 c:/program files/microchip/xc32/v4.60/bin/bin/../../lib/gcc/pic32mx/8.3.1/../../../../pic32mx/lib\libpic32.a(pic32_data_init_copy.o)
 .xc_stack_usage.hdr
                0x0000000000000000        0xe c:/program files/microchip/xc32/v4.60/bin/bin/../../lib/gcc/pic32mx/8.3.1/../../../../pic32mx/lib\libpic32.a(pic32_data_init_copy.o)
 .xc_stack_usage
                0x0000000000000000       0x1a c:/program files/microchip/xc32/v4.60/bin/bin/../../lib/gcc/pic32mx/8.3.1/../../../../pic32mx/lib\libpic32.a(pic32_data_init_copy.o)

Memory Configuration

Name             Origin             Length             Attributes
kseg0_program_mem 0x000000009d000000 0x000000000003f000 xr
exception_mem    0x000000009d03f000 0x0000000000001000
debug_exec_mem   0x000000009fc00490 0x0000000000000760
kseg0_boot_mem   0x000000009fc00490 0x0000000000000000
kseg1_boot_mem   0x00000000bfc00000 0x0000000000000490
config3          0x00000000bfc00bf0 0x0000000000000004
config2          0x00000000bfc00bf4 0x0000000000000004
config1          0x00000000bfc00bf8 0x0000000000000004
config0          0x00000000bfc00bfc 0x0000000000000004
kseg1_data_mem   0x00000000a0000000 0x0000000000010000 w !x
sfrs             0x00000000bf800000 0x0000000000100000
configsfrs       0x00000000bfc00bf0 0x0000000000000010
*default*        0x0000000000000000 0xffffffffffffffff

Linker script and memory map

LOAD c:/program files/microchip/xc32/v4.60/bin/bin/../../lib/gcc/pic32mx/8.3.1/../../../../pic32mx/lib\debug-exception-return.o
LOAD build/default/production/_ext/2128569739/drv_usbfs.o
LOAD build/default/production/_ext/2128569739/drv_usbfs_device.o
LOAD build/default/production/_ext/1529399856/osal_freertos.o
LOAD build/default/production/_ext/60165520/plib_clk.o
LOAD build/default/production/_ext/1865200349/plib_evic.o
LOAD build/default/production/_ext/1865254177/plib_gpio.o
LOAD build/default/production/_ext/163028504/xc32_monitor.o
LOAD build/default/production/_ext/1881668453/sys_int.o
LOAD build/default/production/_ext/308758920/usb_device.o
LOAD build/default/production/_ext/308758920/usb_device_hid.o
LOAD build/default/production/_ext/1171490990/usb_device_init_data.o
LOAD build/default/production/_ext/1171490990/freertos_hooks.o
LOAD build/default/production/_ext/1171490990/initialization.o
LOAD build/default/production/_ext/1171490990/interrupts_a.o
LOAD build/default/production/_ext/1171490990/interrupts.o
LOAD build/default/production/_ext/1171490990/tasks.o
LOAD build/default/production/_ext/1171490990/exceptions.o
LOAD build/default/production/_ext/1665200909/heap_1.o
LOAD build/default/production/_ext/951553248/port.o
LOAD build/default/production/_ext/951553248/port_asm.o
LOAD build/default/production/_ext/404212886/queue.o
LOAD build/default/production/_ext/404212886/list.o
LOAD build/default/production/_ext/404212886/FreeRTOS_tasks.o
LOAD build/default/production/_ext/404212886/timers.o
LOAD build/default/production/_ext/404212886/event_groups.o
LOAD build/default/production/_ext/404212886/croutine.o
LOAD build/default/production/_ext/404212886/stream_buffer.o
LOAD build/default/production/_ext/1360937237/app.o
LOAD build/default/production/_ext/1360937237/main.o
LOAD build/default/production/_ext/1360937237/mouse.o
                0x0000000000000001                __MPLAB_BUILD = 0x1
                0x0000000000000400                PROVIDE (_min_stack_size = 0x400)
START GROUP
LOAD libmchp_peripheral.a
END GROUP
START GROUP
LOAD libmchp_peripheral_32MX270F256B.a
END GROUP
                0x0000000000000001                PROVIDE (_vector_spacing = 0x1)
                0x000000009d03f000                PROVIDE (_ebase_address = 0x9d03f000)
                0x00000000bfc00000                _RESET_ADDR = 0xbfc00000
                0x00000000bfc00380                _BEV_EXCPT_ADDR = 0xbfc00380
                0x00000000bfc00480                _DBG_EXCPT_ADDR = 0xbfc00480
                0x000000009fc00490                _DBG_CODE_ADDR = 0x9fc00490
                0x0000000000000760                _DBG_CODE_SIZE = 0x760
                0x000000009d03f180                _GEN_EXCPT_ADDR = (_ebase_address + 0x180)

.config_BFC00BF0
 *(.config_BFC00BF0)

.config_BFC00BF4
 *(.config_BFC00BF4)

.config_BFC00BF8
 *(.config_BFC00BF8)

.config_BFC00BFC
 *(.config_BFC00BFC)

.reset          0x00000000bfc00000      0x14c
 *(.reset)
 .reset         0x00000000bfc00000        0x8 C:\Users\aryll\AppData\Local\Temp\ccKXWNGz.o
                0x00000000bfc00000                _reset
 *(.reset.startup)
 .reset.startup
                0x00000000bfc00008      0x144 C:\Users\aryll\AppData\Local\Temp\ccKXWNGz.o
                0x00000000bfc00008                _startup

.bev_excpt      0x00000000bfc00380       0x10
 *(.bev_handler)
 .bev_handler   0x00000000bfc00380       0x10 C:\Users\aryll\AppData\Local\Temp\ccKXWNGz.o

.dbg_excpt      0x00000000bfc00480        0x0
                0x00000000bfc00480                . = (. + DEFINED (_DEBUGGER)?0x8:0x0)

.dbg_code       0x000000009fc00490        0x0
                0x000000009fc00490                . = (. + DEFINED (_DEBUGGER)?_DBG_CODE_SIZE:0x0)

.app_excpt      0x000000009d03f180       0x10
 *(.gen_handler)
 .gen_handler   0x000000009d03f180       0x10 C:\Users\aryll\AppData\Local\Temp\ccKXWNGz.o

.vector_0       0x000000009d03f200        0x8
 *(.vector_0)
 .vector_0      0x000000009d03f200        0x8 c:/program files/microchip/xc32/v4.60/bin/bin/../../lib/gcc/pic32mx/8.3.1/../../../../pic32mx/lib\libpic32.a(vector0.o)
                0x000000009d03f200                __vector_dispatch_0
                0x0000000000000001                ASSERT (((_vector_spacing == 0x0) || (SIZEOF (.vector_0) <= (_vector_spacing << 0x5))), function at exception vector 0 too large)

.vector_1       0x000000009d03f220        0x8
 *(.vector_1)
 .vector_1      0x000000009d03f220        0x8 build/default/production/_ext/951553248/port.o
                0x000000009d03f220                __vector_dispatch_1
                0x0000000000000001                ASSERT (((_vector_spacing == 0x0) || (SIZEOF (.vector_1) <= (_vector_spacing << 0x5))), function at exception vector 1 too large)

.vector_2       0x000000009d03f240        0x8
 *(.vector_2)
 .vector_2      0x000000009d03f240        0x8 c:/program files/microchip/xc32/v4.60/bin/bin/../../lib/gcc/pic32mx/8.3.1/../../../../pic32mx/lib\libpic32.a(vector2.o)
                0x000000009d03f240                __vector_dispatch_2
                0x0000000000000001                ASSERT (((_vector_spacing == 0x0) || (SIZEOF (.vector_2) <= (_vector_spacing << 0x5))), function at exception vector 2 too large)

.vector_3       0x000000009d03f260        0x8
 *(.vector_3)
 .vector_3      0x000000009d03f260        0x8 c:/program files/microchip/xc32/v4.60/bin/bin/../../lib/gcc/pic32mx/8.3.1/../../../../pic32mx/lib\libpic32.a(vector3.o)
                0x000000009d03f260                __vector_dispatch_3
                0x0000000000000001                ASSERT (((_vector_spacing == 0x0) || (SIZEOF (.vector_3) <= (_vector_spacing << 0x5))), function at exception vector 3 too large)

.vector_4       0x000000009d03f280        0x8
 *(.vector_4)
 .vector_4      0x000000009d03f280        0x8 build/default/production/_ext/951553248/port.o
                0x000000009d03f280                __vector_dispatch_4
                0x0000000000000001                ASSERT (((_vector_spacing == 0x0) || (SIZEOF (.vector_4) <= (_vector_spacing << 0x5))), function at exception vector 4 too large)

.vector_5       0x000000009d03f2a0        0x8
 *(.vector_5)
 .vector_5      0x000000009d03f2a0        0x8 c:/program files/microchip/xc32/v4.60/bin/bin/../../lib/gcc/pic32mx/8.3.1/../../../../pic32mx/lib\libpic32.a(vector5.o)
                0x000000009d03f2a0                __vector_dispatch_5
                0x0000000000000001                ASSERT (((_vector_spacing == 0x0) || (SIZEOF (.vector_5) <= (_vector_spacing << 0x5))), function at exception vector 5 too large)

.vector_6       0x000000009d03f2c0        0x8
 *(.vector_6)
 .vector_6      0x000000009d03f2c0        0x8 c:/program files/microchip/xc32/v4.60/bin/bin/../../lib/gcc/pic32mx/8.3.1/../../../../pic32mx/lib\libpic32.a(vector6.o)
                0x000000009d03f2c0                __vector_dispatch_6
                0x0000000000000001                ASSERT (((_vector_spacing == 0x0) || (SIZEOF (.vector_6) <= (_vector_spacing << 0x5))), function at exception vector 6 too large)

.vector_7       0x000000009d03f2e0        0x8
 *(.vector_7)
 .vector_7      0x000000009d03f2e0        0x8 c:/program files/microchip/xc32/v4.60/bin/bin/../../lib/gcc/pic32mx/8.3.1/../../../../pic32mx/lib\libpic32.a(vector7.o)
                0x000000009d03f2e0                __vector_dispatch_7
                0x0000000000000001                ASSERT (((_vector_spacing == 0x0) || (SIZEOF (.vector_7) <= (_vector_spacing << 0x5))), function at exception vector 7 too large)

.vector_8       0x000000009d03f300        0x8
 *(.vector_8)
 .vector_8      0x000000009d03f300        0x8 c:/program files/microchip/xc32/v4.60/bin/bin/../../lib/gcc/pic32mx/8.3.1/../../../../pic32mx/lib\libpic32.a(vector8.o)
                0x000000009d03f300                __vector_dispatch_8
                0x0000000000000001                ASSERT (((_vector_spacing == 0x0) || (SIZEOF (.vector_8) <= (_vector_spacing << 0x5))), function at exception vector 8 too large)

.vector_9       0x000000009d03f320        0x8
 *(.vector_9)
 .vector_9      0x000000009d03f320        0x8 c:/program files/microchip/xc32/v4.60/bin/bin/../../lib/gcc/pic32mx/8.3.1/../../../../pic32mx/lib\libpic32.a(vector9.o)
                0x000000009d03f320                __vector_dispatch_9
                0x0000000000000001                ASSERT (((_vector_spacing == 0x0) || (SIZEOF (.vector_9) <= (_vector_spacing << 0x5))), function at exception vector 9 too large)

.vector_10      0x000000009d03f340        0x8
 *(.vector_10)
 .vector_10     0x000000009d03f340        0x8 c:/program files/microchip/xc32/v4.60/bin/bin/../../lib/gcc/pic32mx/8.3.1/../../../../pic32mx/lib\libpic32.a(vector10.o)
                0x000000009d03f340                __vector_dispatch_10
                0x0000000000000001                ASSERT (((_vector_spacing == 0x0) || (SIZEOF (.vector_10) <= (_vector_spacing << 0x5))), function at exception vector 10 too large)

.vector_11      0x000000009d03f360        0x8
 *(.vector_11)
 .vector_11     0x000000009d03f360        0x8 c:/program files/microchip/xc32/v4.60/bin/bin/../../lib/gcc/pic32mx/8.3.1/../../../../pic32mx/lib\libpic32.a(vector11.o)
                0x000000009d03f360                __vector_dispatch_11
                0x0000000000000001                ASSERT (((_vector_spacing == 0x0) || (SIZEOF (.vector_11) <= (_vector_spacing << 0x5))), function at exception vector 11 too large)

.vector_12      0x000000009d03f380        0x8
 *(.vector_12)
 .vector_12     0x000000009d03f380        0x8 c:/program files/microchip/xc32/v4.60/bin/bin/../../lib/gcc/pic32mx/8.3.1/../../../../pic32mx/lib\libpic32.a(vector12.o)
                0x000000009d03f380                __vector_dispatch_12
                0x0000000000000001                ASSERT (((_vector_spacing == 0x0) || (SIZEOF (.vector_12) <= (_vector_spacing << 0x5))), function at exception vector 12 too large)

.vector_13      0x000000009d03f3a0        0x8
 *(.vector_13)
 .vector_13     0x000000009d03f3a0        0x8 c:/program files/microchip/xc32/v4.60/bin/bin/../../lib/gcc/pic32mx/8.3.1/../../../../pic32mx/lib\libpic32.a(vector13.o)
                0x000000009d03f3a0                __vector_dispatch_13
                0x0000000000000001                ASSERT (((_vector_spacing == 0x0) || (SIZEOF (.vector_13) <= (_vector_spacing << 0x5))), function at exception vector 13 too large)

.vector_14      0x000000009d03f3c0        0x8
 *(.vector_14)
 .vector_14     0x000000009d03f3c0        0x8 c:/program files/microchip/xc32/v4.60/bin/bin/../../lib/gcc/pic32mx/8.3.1/../../../../pic32mx/lib\libpic32.a(vector14.o)
                0x000000009d03f3c0                __vector_dispatch_14
                0x0000000000000001                ASSERT (((_vector_spacing == 0x0) || (SIZEOF (.vector_14) <= (_vector_spacing << 0x5))), function at exception vector 14 too large)

.vector_15      0x000000009d03f3e0        0x8
 *(.vector_15)
 .vector_15     0x000000009d03f3e0        0x8 c:/program files/microchip/xc32/v4.60/bin/bin/../../lib/gcc/pic32mx/8.3.1/../../../../pic32mx/lib\libpic32.a(vector15.o)
                0x000000009d03f3e0                __vector_dispatch_15
                0x0000000000000001                ASSERT (((_vector_spacing == 0x0) || (SIZEOF (.vector_15) <= (_vector_spacing << 0x5))), function at exception vector 15 too large)

.vector_16      0x000000009d03f400        0x8
 *(.vector_16)
 .vector_16     0x000000009d03f400        0x8 c:/program files/microchip/xc32/v4.60/bin/bin/../../lib/gcc/pic32mx/8.3.1/../../../../pic32mx/lib\libpic32.a(vector16.o)
                0x000000009d03f400                __vector_dispatch_16
                0x0000000000000001                ASSERT (((_vector_spacing == 0x0) || (SIZEOF (.vector_16) <= (_vector_spacing << 0x5))), function at exception vector 16 too large)

.vector_17      0x000000009d03f420        0x8
 *(.vector_17)
 .vector_17     0x000000009d03f420        0x8 c:/program files/microchip/xc32/v4.60/bin/bin/../../lib/gcc/pic32mx/8.3.1/../../../../pic32mx/lib\libpic32.a(vector17.o)
                0x000000009d03f420                __vector_dispatch_17
                0x0000000000000001                ASSERT (((_vector_spacing == 0x0) || (SIZEOF (.vector_17) <= (_vector_spacing << 0x5))), function at exception vector 17 too large)

.vector_18      0x000000009d03f440        0x8
 *(.vector_18)
 .vector_18     0x000000009d03f440        0x8 c:/program files/microchip/xc32/v4.60/bin/bin/../../lib/gcc/pic32mx/8.3.1/../../../../pic32mx/lib\libpic32.a(vector18.o)
                0x000000009d03f440                __vector_dispatch_18
                0x0000000000000001                ASSERT (((_vector_spacing == 0x0) || (SIZEOF (.vector_18) <= (_vector_spacing << 0x5))), function at exception vector 18 too large)

.vector_19      0x000000009d03f460        0x8
 *(.vector_19)
 .vector_19     0x000000009d03f460        0x8 c:/program files/microchip/xc32/v4.60/bin/bin/../../lib/gcc/pic32mx/8.3.1/../../../../pic32mx/lib\libpic32.a(vector19.o)
                0x000000009d03f460                __vector_dispatch_19
                0x0000000000000001                ASSERT (((_vector_spacing == 0x0) || (SIZEOF (.vector_19) <= (_vector_spacing << 0x5))), function at exception vector 19 too large)

.vector_20      0x000000009d03f480        0x8
 *(.vector_20)
 .vector_20     0x000000009d03f480        0x8 c:/program files/microchip/xc32/v4.60/bin/bin/../../lib/gcc/pic32mx/8.3.1/../../../../pic32mx/lib\libpic32.a(vector20.o)
                0x000000009d03f480                __vector_dispatch_20
                0x0000000000000001                ASSERT (((_vector_spacing == 0x0) || (SIZEOF (.vector_20) <= (_vector_spacing << 0x5))), function at exception vector 20 too large)

.vector_21      0x000000009d03f4a0        0x8
 *(.vector_21)
 .vector_21     0x000000009d03f4a0        0x8 c:/program files/microchip/xc32/v4.60/bin/bin/../../lib/gcc/pic32mx/8.3.1/../../../../pic32mx/lib\libpic32.a(vector21.o)
                0x000000009d03f4a0                __vector_dispatch_21
                0x0000000000000001                ASSERT (((_vector_spacing == 0x0) || (SIZEOF (.vector_21) <= (_vector_spacing << 0x5))), function at exception vector 21 too large)

.vector_22      0x000000009d03f4c0        0x8
 *(.vector_22)
 .vector_22     0x000000009d03f4c0        0x8 c:/program files/microchip/xc32/v4.60/bin/bin/../../lib/gcc/pic32mx/8.3.1/../../../../pic32mx/lib\libpic32.a(vector22.o)
                0x000000009d03f4c0                __vector_dispatch_22
                0x0000000000000001                ASSERT (((_vector_spacing == 0x0) || (SIZEOF (.vector_22) <= (_vector_spacing << 0x5))), function at exception vector 22 too large)

.vector_23      0x000000009d03f4e0        0x8
 *(.vector_23)
 .vector_23     0x000000009d03f4e0        0x8 c:/program files/microchip/xc32/v4.60/bin/bin/../../lib/gcc/pic32mx/8.3.1/../../../../pic32mx/lib\libpic32.a(vector23.o)
                0x000000009d03f4e0                __vector_dispatch_23
                0x0000000000000001                ASSERT (((_vector_spacing == 0x0) || (SIZEOF (.vector_23) <= (_vector_spacing << 0x5))), function at exception vector 23 too large)

.vector_24      0x000000009d03f500        0x8
 *(.vector_24)
 .vector_24     0x000000009d03f500        0x8 c:/program files/microchip/xc32/v4.60/bin/bin/../../lib/gcc/pic32mx/8.3.1/../../../../pic32mx/lib\libpic32.a(vector24.o)
                0x000000009d03f500                __vector_dispatch_24
                0x0000000000000001                ASSERT (((_vector_spacing == 0x0) || (SIZEOF (.vector_24) <= (_vector_spacing << 0x5))), function at exception vector 24 too large)

.vector_25      0x000000009d03f520        0x8
 *(.vector_25)
 .vector_25     0x000000009d03f520        0x8 c:/program files/microchip/xc32/v4.60/bin/bin/../../lib/gcc/pic32mx/8.3.1/../../../../pic32mx/lib\libpic32.a(vector25.o)
                0x000000009d03f520                __vector_dispatch_25
                0x0000000000000001                ASSERT (((_vector_spacing == 0x0) || (SIZEOF (.vector_25) <= (_vector_spacing << 0x5))), function at exception vector 25 too large)

.vector_26      0x000000009d03f540        0x8
 *(.vector_26)
 .vector_26     0x000000009d03f540        0x8 c:/program files/microchip/xc32/v4.60/bin/bin/../../lib/gcc/pic32mx/8.3.1/../../../../pic32mx/lib\libpic32.a(vector26.o)
                0x000000009d03f540                __vector_dispatch_26
                0x0000000000000001                ASSERT (((_vector_spacing == 0x0) || (SIZEOF (.vector_26) <= (_vector_spacing << 0x5))), function at exception vector 26 too large)

.vector_27      0x000000009d03f560        0x8
 *(.vector_27)
 .vector_27     0x000000009d03f560        0x8 c:/program files/microchip/xc32/v4.60/bin/bin/../../lib/gcc/pic32mx/8.3.1/../../../../pic32mx/lib\libpic32.a(vector27.o)
                0x000000009d03f560                __vector_dispatch_27
                0x0000000000000001                ASSERT (((_vector_spacing == 0x0) || (SIZEOF (.vector_27) <= (_vector_spacing << 0x5))), function at exception vector 27 too large)

.vector_28      0x000000009d03f580        0x8
 *(.vector_28)
 .vector_28     0x000000009d03f580        0x8 c:/program files/microchip/xc32/v4.60/bin/bin/../../lib/gcc/pic32mx/8.3.1/../../../../pic32mx/lib\libpic32.a(vector28.o)
                0x000000009d03f580                __vector_dispatch_28
                0x0000000000000001                ASSERT (((_vector_spacing == 0x0) || (SIZEOF (.vector_28) <= (_vector_spacing << 0x5))), function at exception vector 28 too large)

.vector_29      0x000000009d03f5a0        0x8
 *(.vector_29)
 .vector_29     0x000000009d03f5a0        0x8 c:/program files/microchip/xc32/v4.60/bin/bin/../../lib/gcc/pic32mx/8.3.1/../../../../pic32mx/lib\libpic32.a(vector29.o)
                0x000000009d03f5a0                __vector_dispatch_29
                0x0000000000000001                ASSERT (((_vector_spacing == 0x0) || (SIZEOF (.vector_29) <= (_vector_spacing << 0x5))), function at exception vector 29 too large)

.vector_30      0x000000009d03f5c0       0x10
 *(.vector_30)
 .vector_30     0x000000009d03f5c0       0x10 build/default/production/_ext/1171490990/interrupts_a.o
                0x000000009d03f5c0                __vector_dispatch_30
                0x0000000000000001                ASSERT (((_vector_spacing == 0x0) || (SIZEOF (.vector_30) <= (_vector_spacing << 0x5))), function at exception vector 30 too large)

.vector_31      0x000000009d03f5e0        0x8
 *(.vector_31)
 .vector_31     0x000000009d03f5e0        0x8 c:/program files/microchip/xc32/v4.60/bin/bin/../../lib/gcc/pic32mx/8.3.1/../../../../pic32mx/lib\libpic32.a(vector31.o)
                0x000000009d03f5e0                __vector_dispatch_31
                0x0000000000000001                ASSERT (((_vector_spacing == 0x0) || (SIZEOF (.vector_31) <= (_vector_spacing << 0x5))), function at exception vector 31 too large)

.vector_32      0x000000009d03f600        0x8
 *(.vector_32)
 .vector_32     0x000000009d03f600        0x8 c:/program files/microchip/xc32/v4.60/bin/bin/../../lib/gcc/pic32mx/8.3.1/../../../../pic32mx/lib\libpic32.a(vector32.o)
                0x000000009d03f600                __vector_dispatch_32
                0x0000000000000001                ASSERT (((_vector_spacing == 0x0) || (SIZEOF (.vector_32) <= (_vector_spacing << 0x5))), function at exception vector 32 too large)

.vector_33      0x000000009d03f620        0x8
 *(.vector_33)
 .vector_33     0x000000009d03f620        0x8 c:/program files/microchip/xc32/v4.60/bin/bin/../../lib/gcc/pic32mx/8.3.1/../../../../pic32mx/lib\libpic32.a(vector33.o)
                0x000000009d03f620                __vector_dispatch_33
                0x0000000000000001                ASSERT (((_vector_spacing == 0x0) || (SIZEOF (.vector_33) <= (_vector_spacing << 0x5))), function at exception vector 33 too large)

.vector_34      0x000000009d03f640        0x8
 *(.vector_34)
 .vector_34     0x000000009d03f640        0x8 c:/program files/microchip/xc32/v4.60/bin/bin/../../lib/gcc/pic32mx/8.3.1/../../../../pic32mx/lib\libpic32.a(vector34.o)
                0x000000009d03f640                __vector_dispatch_34
                0x0000000000000001                ASSERT (((_vector_spacing == 0x0) || (SIZEOF (.vector_34) <= (_vector_spacing << 0x5))), function at exception vector 34 too large)

.vector_35      0x000000009d03f660        0x8
 *(.vector_35)
 .vector_35     0x000000009d03f660        0x8 c:/program files/microchip/xc32/v4.60/bin/bin/../../lib/gcc/pic32mx/8.3.1/../../../../pic32mx/lib\libpic32.a(vector35.o)
                0x000000009d03f660                __vector_dispatch_35
                0x0000000000000001                ASSERT (((_vector_spacing == 0x0) || (SIZEOF (.vector_35) <= (_vector_spacing << 0x5))), function at exception vector 35 too large)

.vector_36      0x000000009d03f680        0x8
 *(.vector_36)
 .vector_36     0x000000009d03f680        0x8 c:/program files/microchip/xc32/v4.60/bin/bin/../../lib/gcc/pic32mx/8.3.1/../../../../pic32mx/lib\libpic32.a(vector36.o)
                0x000000009d03f680                __vector_dispatch_36
                0x0000000000000001                ASSERT (((_vector_spacing == 0x0) || (SIZEOF (.vector_36) <= (_vector_spacing << 0x5))), function at exception vector 36 too large)

.vector_37      0x000000009d03f6a0        0x8
 *(.vector_37)
 .vector_37     0x000000009d03f6a0        0x8 c:/program files/microchip/xc32/v4.60/bin/bin/../../lib/gcc/pic32mx/8.3.1/../../../../pic32mx/lib\libpic32.a(vector37.o)
                0x000000009d03f6a0                __vector_dispatch_37
                0x0000000000000001                ASSERT (((_vector_spacing == 0x0) || (SIZEOF (.vector_37) <= (_vector_spacing << 0x5))), function at exception vector 37 too large)

.vector_38      0x000000009d03f6c0        0x8
 *(.vector_38)
 .vector_38     0x000000009d03f6c0        0x8 c:/program files/microchip/xc32/v4.60/bin/bin/../../lib/gcc/pic32mx/8.3.1/../../../../pic32mx/lib\libpic32.a(vector38.o)
                0x000000009d03f6c0                __vector_dispatch_38
                0x0000000000000001                ASSERT (((_vector_spacing == 0x0) || (SIZEOF (.vector_38) <= (_vector_spacing << 0x5))), function at exception vector 38 too large)

.vector_39      0x000000009d03f6e0        0x8
 *(.vector_39)
 .vector_39     0x000000009d03f6e0        0x8 c:/program files/microchip/xc32/v4.60/bin/bin/../../lib/gcc/pic32mx/8.3.1/../../../../pic32mx/lib\libpic32.a(vector39.o)
                0x000000009d03f6e0                __vector_dispatch_39
                0x0000000000000001                ASSERT (((_vector_spacing == 0x0) || (SIZEOF (.vector_39) <= (_vector_spacing << 0x5))), function at exception vector 39 too large)

.vector_40      0x000000009d03f700        0x8
 *(.vector_40)
 .vector_40     0x000000009d03f700        0x8 c:/program files/microchip/xc32/v4.60/bin/bin/../../lib/gcc/pic32mx/8.3.1/../../../../pic32mx/lib\libpic32.a(vector40.o)
                0x000000009d03f700                __vector_dispatch_40
                0x0000000000000001                ASSERT (((_vector_spacing == 0x0) || (SIZEOF (.vector_40) <= (_vector_spacing << 0x5))), function at exception vector 40 too large)

.vector_41      0x000000009d03f720        0x8
 *(.vector_41)
 .vector_41     0x000000009d03f720        0x8 c:/program files/microchip/xc32/v4.60/bin/bin/../../lib/gcc/pic32mx/8.3.1/../../../../pic32mx/lib\libpic32.a(vector41.o)
                0x000000009d03f720                __vector_dispatch_41
                0x0000000000000001                ASSERT (((_vector_spacing == 0x0) || (SIZEOF (.vector_41) <= (_vector_spacing << 0x5))), function at exception vector 41 too large)

.vector_42      0x000000009d03f740        0x8
 *(.vector_42)
 .vector_42     0x000000009d03f740        0x8 c:/program files/microchip/xc32/v4.60/bin/bin/../../lib/gcc/pic32mx/8.3.1/../../../../pic32mx/lib\libpic32.a(vector42.o)
                0x000000009d03f740                __vector_dispatch_42
                0x0000000000000001                ASSERT (((_vector_spacing == 0x0) || (SIZEOF (.vector_42) <= (_vector_spacing << 0x5))), function at exception vector 42 too large)

.vector_43      0x000000009d03f760        0x8
 *(.vector_43)
 .vector_43     0x000000009d03f760        0x8 c:/program files/microchip/xc32/v4.60/bin/bin/../../lib/gcc/pic32mx/8.3.1/../../../../pic32mx/lib\libpic32.a(vector43.o)
                0x000000009d03f760                __vector_dispatch_43
                0x0000000000000001                ASSERT (((_vector_spacing == 0x0) || (SIZEOF (.vector_43) <= (_vector_spacing << 0x5))), function at exception vector 43 too large)

.vector_44      0x000000009d03f780        0x0
 *(.vector_44)
                0x0000000000000001                ASSERT (((_vector_spacing == 0x0) || (SIZEOF (.vector_44) <= (_vector_spacing << 0x5))), function at exception vector 44 too large)

.vector_45      0x000000009d03f7a0        0x0
 *(.vector_45)
                0x0000000000000001                ASSERT (((_vector_spacing == 0x0) || (SIZEOF (.vector_45) <= (_vector_spacing << 0x5))), function at exception vector 45 too large)

.vector_46      0x000000009d03f7c0        0x0
 *(.vector_46)
                0x0000000000000001                ASSERT (((_vector_spacing == 0x0) || (SIZEOF (.vector_46) <= (_vector_spacing << 0x5))), function at exception vector 46 too large)

.vector_47      0x000000009d03f7e0        0x0
 *(.vector_47)
                0x0000000000000001                ASSERT (((_vector_spacing == 0x0) || (SIZEOF (.vector_47) <= (_vector_spacing << 0x5))), function at exception vector 47 too large)

.vector_48      0x000000009d03f800        0x0
 *(.vector_48)
                0x0000000000000001                ASSERT (((_vector_spacing == 0x0) || (SIZEOF (.vector_48) <= (_vector_spacing << 0x5))), function at exception vector 48 too large)

.vector_49      0x000000009d03f820        0x0
 *(.vector_49)
                0x0000000000000001                ASSERT (((_vector_spacing == 0x0) || (SIZEOF (.vector_49) <= (_vector_spacing << 0x5))), function at exception vector 49 too large)

.vector_50      0x000000009d03f840        0x0
 *(.vector_50)
                0x0000000000000001                ASSERT (((_vector_spacing == 0x0) || (SIZEOF (.vector_50) <= (_vector_spacing << 0x5))), function at exception vector 50 too large)

.vector_51      0x000000009d03f860        0x0
 *(.vector_51)
                0x0000000000000001                ASSERT (((_vector_spacing == 0x0) || (SIZEOF (.vector_51) <= (_vector_spacing << 0x5))), function at exception vector 51 too large)

.vector_52      0x000000009d03f880        0x0
 *(.vector_52)
                0x0000000000000001                ASSERT (((_vector_spacing == 0x0) || (SIZEOF (.vector_52) <= (_vector_spacing << 0x5))), function at exception vector 52 too large)

.vector_53      0x000000009d03f8a0        0x0
 *(.vector_53)
                0x0000000000000001                ASSERT (((_vector_spacing == 0x0) || (SIZEOF (.vector_53) <= (_vector_spacing << 0x5))), function at exception vector 53 too large)

.vector_54      0x000000009d03f8c0        0x0
 *(.vector_54)
                0x0000000000000001                ASSERT (((_vector_spacing == 0x0) || (SIZEOF (.vector_54) <= (_vector_spacing << 0x5))), function at exception vector 54 too large)

.vector_55      0x000000009d03f8e0        0x0
 *(.vector_55)
                0x0000000000000001                ASSERT (((_vector_spacing == 0x0) || (SIZEOF (.vector_55) <= (_vector_spacing << 0x5))), function at exception vector 55 too large)

.vector_56      0x000000009d03f900        0x0
 *(.vector_56)
                0x0000000000000001                ASSERT (((_vector_spacing == 0x0) || (SIZEOF (.vector_56) <= (_vector_spacing << 0x5))), function at exception vector 56 too large)

.vector_57      0x000000009d03f920        0x0
 *(.vector_57)
                0x0000000000000001                ASSERT (((_vector_spacing == 0x0) || (SIZEOF (.vector_57) <= (_vector_spacing << 0x5))), function at exception vector 57 too large)

.vector_58      0x000000009d03f940        0x0
 *(.vector_58)
                0x0000000000000001                ASSERT (((_vector_spacing == 0x0) || (SIZEOF (.vector_58) <= (_vector_spacing << 0x5))), function at exception vector 58 too large)

.vector_59      0x000000009d03f960        0x0
 *(.vector_59)
                0x0000000000000001                ASSERT (((_vector_spacing == 0x0) || (SIZEOF (.vector_59) <= (_vector_spacing << 0x5))), function at exception vector 59 too large)

.vector_60      0x000000009d03f980        0x0
 *(.vector_60)
                0x0000000000000001                ASSERT (((_vector_spacing == 0x0) || (SIZEOF (.vector_60) <= (_vector_spacing << 0x5))), function at exception vector 60 too large)

.vector_61      0x000000009d03f9a0        0x0
 *(.vector_61)
                0x0000000000000001                ASSERT (((_vector_spacing == 0x0) || (SIZEOF (.vector_61) <= (_vector_spacing << 0x5))), function at exception vector 61 too large)

.vector_62      0x000000009d03f9c0        0x0
 *(.vector_62)
                0x0000000000000001                ASSERT (((_vector_spacing == 0x0) || (SIZEOF (.vector_62) <= (_vector_spacing << 0x5))), function at exception vector 62 too large)

.vector_63      0x000000009d03f9e0        0x0
 *(.vector_63)
                0x0000000000000001                ASSERT (((_vector_spacing == 0x0) || (SIZEOF (.vector_63) <= (_vector_spacing << 0x5))), function at exception vector 63 too large)

.startup
 *(.startup)

.text           0x000000009d000000        0x0
 *(.stub .gnu.linkonce.t.*)
 *(.text.*personality*)
 *(.mips16.fn.*)
 *(.mips16.call.*)
 *(.gnu.warning)
                0x000000009d000000                . = ALIGN (0x4)

.init           0x000000009d000000        0x0
 *crti.o(.init)
 *crtbegin.o(.init)
 *(EXCLUDE_FILE(*crtn.o *crtend?.o *crtend.o) .init)
 *crtend.o(.init)
 *crtn.o(.init)
                0x000000009d000000                . = ALIGN (0x4)

.fini           0x000000009d000000        0x0
 *(.fini)
                0x000000009d000000                . = ALIGN (0x4)

.preinit_array  0x000000009d000000        0x0
                [!provide]                        PROVIDE (__preinit_array_start = .)
 *(.preinit_array)
                [!provide]                        PROVIDE (__preinit_array_end = .)
                0x000000009d000000                . = ALIGN (0x4)

.init_array     0x000000009d000000        0x0
                [!provide]                        PROVIDE (__init_array_start = .)
 *(SORT_BY_NAME(.init_array.*))
 *(.init_array)
                [!provide]                        PROVIDE (__init_array_end = .)
                0x000000009d000000                . = ALIGN (0x4)

.fini_array     0x000000009d000000        0x0
                [!provide]                        PROVIDE (__fini_array_start = .)
 *(SORT_BY_NAME(.fini_array.*))
 *(.fini_array)
                [!provide]                        PROVIDE (__fini_array_end = .)
                0x000000009d000000                . = ALIGN (0x4)

.ctors          0x000000009d000000        0x0
 *crtbegin.o(.ctors)
 *crtbegin?.o(.ctors)
 *(EXCLUDE_FILE(*crtend?.o *crtend.o) .ctors)
 *(SORT_BY_NAME(.ctors.*))
 *(.ctors)
                0x000000009d000000                . = ALIGN (0x4)

.dtors          0x000000009d000000        0x0
 *crtbegin.o(.dtors)
 *crtbegin?.o(.dtors)
 *(EXCLUDE_FILE(*crtend?.o *crtend.o) .dtors)
 *(SORT_BY_NAME(.dtors.*))
 *(.dtors)
                0x000000009d000000                . = ALIGN (0x4)

.rodata         0x000000009d000000        0x0
 *(.gnu.linkonce.r.*)
 *(.rodata1)
                0x000000009d000000                . = ALIGN (0x4)

.sdata2         0x000000009d000000        0x0
 *(.sdata2 .sdata2.* .gnu.linkonce.s2.*)
                0x000000009d000000                . = ALIGN (0x4)

.sbss2          0x000000009d000000        0x0
 *(.sbss2 .sbss2.* .gnu.linkonce.sb2.*)
                0x000000009d000000                . = ALIGN (0x4)

.eh_frame_hdr
 *(.eh_frame_hdr)
                0x000000009d000000                . = ALIGN (0x4)

.eh_frame
 *(.eh_frame)
                0x000000009d000000                . = ALIGN (0x4)

.gcc_except_table
 *(.gcc_except_table .gcc_except_table.*)
                0x000000009d000000                . = ALIGN (0x4)

.dbg_data       0x00000000a0000000        0x0
                0x00000000a0000000                . = (. + DEFINED (_DEBUGGER)?0x200:0x0)

.jcr            0x00000000a0000000        0x0
 *(.jcr)
                0x00000000a0000000                . = ALIGN (0x4)

.eh_frame
 *(.eh_frame)
                0x00000000a0000000                . = ALIGN (0x4)

.gcc_except_table
 *(.gcc_except_table .gcc_except_table.*)
                0x00000000a0000000                . = ALIGN (0x4)

.persist        0x00000000a0000000        0x0
                0x00000000a0000000                _persist_begin = .
 *(.persist .persist.*)
                0x00000000a0000000                . = ALIGN (0x4)
                0x00000000a0000000                _persist_end = .

.data           0x00000000a0000000        0x0
 *(.gnu.linkonce.d.*)
 *(.data1)
                0x00000000a0000000                . = ALIGN (0x4)
                0x00000000a0000000                . = .
                0x00000000a0007ff0                _gp = (ALIGN (0x10) + 0x7ff0)

.got            0x00000000a0000000        0x0
 *(.got.plt)
 *(.got)
                0x00000000a0000000                . = ALIGN (0x4)

.sdata          0x00000000a0000000        0xc
                0x00000000a0000000                _sdata_begin = .
 *(.sdata .sdata.* .gnu.linkonce.s.*)
 .sdata.uxInterruptNesting
                0x00000000a0000000        0x4 build/default/production/_ext/951553248/port.o
                0x00000000a0000000                uxInterruptNesting
 .sdata.dir_table
                0x00000000a0000004        0x8 build/default/production/_ext/1360937237/app.o
                0x00000000a0000004                dir_table
                0x00000000a000000c                . = ALIGN (0x4)
                0x00000000a000000c                _sdata_end = .

.lit8
 *(.lit8)

.lit4
 *(.lit4)
                0x00000000a000000c                . = ALIGN (0x4)
                0x00000000a000000c                _data_end = .
                0x00000000a000000c                _bss_begin = .

.sbss           0x00000000a000000c       0x6c
                0x00000000a000000c                _sbss_begin = .
 *(.dynsbss)
 *(.sbss .sbss.* .gnu.linkonce.sb.*)
 .sbss.altSetting.11464
                0x00000000a000000c        0x1 build/default/production/_ext/308758920/usb_device_hid.o
 *fill*         0x00000000a000000d        0x3 
 .sbss.gUSBDeviceHidCommonDataObj
                0x00000000a0000010        0x8 build/default/production/_ext/308758920/usb_device_hid.o
 .sbss.sysObj   0x00000000a0000018        0x8 build/default/production/_ext/1171490990/initialization.o
                0x00000000a0000018                sysObj
 .sbss.xAPP_Tasks
                0x00000000a0000020        0x4 build/default/production/_ext/1171490990/tasks.o
                0x00000000a0000020                xAPP_Tasks
 .sbss.pucAlignedHeap.7823
                0x00000000a0000024        0x4 build/default/production/_ext/1665200909/heap_1.o
 .sbss.xNextFreeByte
                0x00000000a0000028        0x4 build/default/production/_ext/1665200909/heap_1.o
 .sbss.uxSavedTaskStackPointer
                0x00000000a000002c        0x4 build/default/production/_ext/951553248/port.o
                0x00000000a000002c                uxSavedTaskStackPointer
 .sbss.uxSchedulerSuspended
                0x00000000a0000030        0x4 build/default/production/_ext/404212886/FreeRTOS_tasks.o
 .sbss.xIdleTaskHandles
                0x00000000a0000034        0x4 build/default/production/_ext/404212886/FreeRTOS_tasks.o
 .sbss.xNextTaskUnblockTime
                0x00000000a0000038        0x4 build/default/production/_ext/404212886/FreeRTOS_tasks.o
 .sbss.uxTaskNumber
                0x00000000a000003c        0x4 build/default/production/_ext/404212886/FreeRTOS_tasks.o
 .sbss.xNumOfOverflows
                0x00000000a0000040        0x4 build/default/production/_ext/404212886/FreeRTOS_tasks.o
 .sbss.xYieldPendings
                0x00000000a0000044        0x4 build/default/production/_ext/404212886/FreeRTOS_tasks.o
 .sbss.xPendedTicks
                0x00000000a0000048        0x4 build/default/production/_ext/404212886/FreeRTOS_tasks.o
 .sbss.xSchedulerRunning
                0x00000000a000004c        0x4 build/default/production/_ext/404212886/FreeRTOS_tasks.o
 .sbss.uxTopReadyPriority
                0x00000000a0000050        0x4 build/default/production/_ext/404212886/FreeRTOS_tasks.o
 .sbss.xTickCount
                0x00000000a0000054        0x4 build/default/production/_ext/404212886/FreeRTOS_tasks.o
 .sbss.uxCurrentNumberOfTasks
                0x00000000a0000058        0x4 build/default/production/_ext/404212886/FreeRTOS_tasks.o
 .sbss.uxDeletedTasksWaitingCleanUp
                0x00000000a000005c        0x4 build/default/production/_ext/404212886/FreeRTOS_tasks.o
 .sbss.pxOverflowDelayedTaskList
                0x00000000a0000060        0x4 build/default/production/_ext/404212886/FreeRTOS_tasks.o
 .sbss.pxDelayedTaskList
                0x00000000a0000064        0x4 build/default/production/_ext/404212886/FreeRTOS_tasks.o
 .sbss.pxCurrentTCB
                0x00000000a0000068        0x4 build/default/production/_ext/404212886/FreeRTOS_tasks.o
                0x00000000a0000068                pxCurrentTCB
 .sbss.vector.13642
                0x00000000a000006c        0x1 build/default/production/_ext/1360937237/app.o
 .sbss.movement_length.13643
                0x00000000a000006d        0x1 build/default/production/_ext/1360937237/app.o
 .sbss.sent_dont_move.13644
                0x00000000a000006e        0x1 build/default/production/_ext/1360937237/app.o
 *fill*         0x00000000a000006f        0x1 
 .sbss.mouseReportPrevious
                0x00000000a0000070        0x3 build/default/production/_ext/1360937237/app.o
                0x00000000a0000070                mouseReportPrevious
 *fill*         0x00000000a0000073        0x1 
 .sbss.mouseReport
                0x00000000a0000074        0x3 build/default/production/_ext/1360937237/app.o
                0x00000000a0000074                mouseReport
 *(.scommon)
                0x00000000a0000077                _sbss_end = .
                0x00000000a0000078                . = ALIGN (0x4)
 *fill*         0x00000000a0000077        0x1 

.bss            0x00000000a0000078        0x0
 *(.dynbss)
 *(COMMON)
                0x00000000a0000078                . = ALIGN ((. != 0x0)?0x4:0x1)
                0x00000000a0000078                . = ALIGN (0x4)
                0x00000000a0000078                _end = .
                0x00000000a0000078                _bss_end = .
                0x0000000000010000                _bmxdudba_address = LENGTH (kseg1_data_mem)
                0x0000000000010000                _bmxdupba_address = LENGTH (kseg1_data_mem)

/DISCARD/
 *(.pdr)
 *(.rel.dyn)
 *(.note.GNU-stack)
 *(.note.GNU-stack)
 *(.gnu_debuglink)
 *(.gnu.lto_*)
 *(.discard)

.gptab.sdata
 *(.gptab.data)
 *(.gptab.sdata)

.gptab.sbss
 *(.gptab.bss)
 *(.gptab.sbss)

.mdebug.abi32   0x0000000000000000        0x0
 *(.mdebug.abi32)
 .mdebug.abi32  0x0000000000000000        0x0 build/default/production/_ext/2128569739/drv_usbfs.o
 .mdebug.abi32  0x0000000000000000        0x0 build/default/production/_ext/2128569739/drv_usbfs_device.o
 .mdebug.abi32  0x0000000000000000        0x0 build/default/production/_ext/1529399856/osal_freertos.o
 .mdebug.abi32  0x0000000000000000        0x0 build/default/production/_ext/60165520/plib_clk.o
 .mdebug.abi32  0x0000000000000000        0x0 build/default/production/_ext/1865200349/plib_evic.o
 .mdebug.abi32  0x0000000000000000        0x0 build/default/production/_ext/1865254177/plib_gpio.o
 .mdebug.abi32  0x0000000000000000        0x0 build/default/production/_ext/163028504/xc32_monitor.o
 .mdebug.abi32  0x0000000000000000        0x0 build/default/production/_ext/1881668453/sys_int.o
 .mdebug.abi32  0x0000000000000000        0x0 build/default/production/_ext/308758920/usb_device.o
 .mdebug.abi32  0x0000000000000000        0x0 build/default/production/_ext/308758920/usb_device_hid.o
 .mdebug.abi32  0x0000000000000000        0x0 build/default/production/_ext/1171490990/usb_device_init_data.o
 .mdebug.abi32  0x0000000000000000        0x0 build/default/production/_ext/1171490990/freertos_hooks.o
 .mdebug.abi32  0x0000000000000000        0x0 build/default/production/_ext/1171490990/initialization.o
 .mdebug.abi32  0x0000000000000000        0x0 build/default/production/_ext/1171490990/interrupts.o
 .mdebug.abi32  0x0000000000000000        0x0 build/default/production/_ext/1171490990/tasks.o
 .mdebug.abi32  0x0000000000000000        0x0 build/default/production/_ext/1171490990/exceptions.o
 .mdebug.abi32  0x0000000000000000        0x0 build/default/production/_ext/1665200909/heap_1.o
 .mdebug.abi32  0x0000000000000000        0x0 build/default/production/_ext/951553248/port.o
 .mdebug.abi32  0x0000000000000000        0x0 build/default/production/_ext/404212886/queue.o
 .mdebug.abi32  0x0000000000000000        0x0 build/default/production/_ext/404212886/list.o
 .mdebug.abi32  0x0000000000000000        0x0 build/default/production/_ext/404212886/FreeRTOS_tasks.o
 .mdebug.abi32  0x0000000000000000        0x0 build/default/production/_ext/404212886/timers.o
 .mdebug.abi32  0x0000000000000000        0x0 build/default/production/_ext/404212886/event_groups.o
 .mdebug.abi32  0x0000000000000000        0x0 build/default/production/_ext/404212886/croutine.o
 .mdebug.abi32  0x0000000000000000        0x0 build/default/production/_ext/404212886/stream_buffer.o
 .mdebug.abi32  0x0000000000000000        0x0 build/default/production/_ext/1360937237/app.o
 .mdebug.abi32  0x0000000000000000        0x0 build/default/production/_ext/1360937237/main.o
 .mdebug.abi32  0x0000000000000000        0x0 build/default/production/_ext/1360937237/mouse.o
 .mdebug.abi32  0x0000000000000000        0x0 c:/program files/microchip/xc32/v4.60/bin/bin/../../lib/gcc/pic32mx/8.3.1/../../../../pic32mx/lib\libpic32.a(default-on-reset.o)
 .mdebug.abi32  0x0000000000000000        0x0 c:/program files/microchip/xc32/v4.60/bin/bin/../../lib/gcc/pic32mx/8.3.1/../../../../pic32mx/lib\libpic32.a(default-on-bootstrap.o)
 .mdebug.abi32  0x0000000000000000        0x0 c:/program files/microchip/xc32/v4.60/bin/bin/../../lib/gcc/pic32mx/8.3.1/../../../../pic32mx/lib\libpic32.a(defaultinterrupt.o)
 .mdebug.abi32  0x0000000000000000        0x0 c:/program files/microchip/xc32/v4.60/bin/bin/../../lib/gcc/pic32mx/8.3.1/../../../../pic32mx/lib\libc-size-musl.a(memcmp.o)
 .mdebug.abi32  0x0000000000000000        0x0 c:/program files/microchip/xc32/v4.60/bin/bin/../../lib/gcc/pic32mx/8.3.1/../../../../pic32mx/lib\libc-size-musl.a(memcpy.o)
 .mdebug.abi32  0x0000000000000000        0x0 c:/program files/microchip/xc32/v4.60/bin/bin/../../lib/gcc/pic32mx/8.3.1/../../../../pic32mx/lib\libc-size-musl.a(memset.o)

.mdebug.abiN32
 *(.mdebug.abiN32)

.mdebug.abi64
 *(.mdebug.abi64)

.mdebug.abiO64
 *(.mdebug.abiO64)

.mdebug.eabi32
 *(.mdebug.eabi32)

.mdebug.eabi64
 *(.mdebug.eabi64)

.gcc_compiled_long32
 *(.gcc_compiled_long32)

.gcc_compiled_long64
 *(.gcc_compiled_long64)

.stab
 *(.stab)

.stabstr
 *(.stabstr)

.stab.excl
 *(.stab.excl)

.stab.exclstr
 *(.stab.exclstr)

.stab.index
 *(.stab.index)

.stab.indexstr
 *(.stab.indexstr)

.comment        0x0000000000000000       0x2b
 *(.comment)
 .comment       0x0000000000000000       0x2b build/default/production/_ext/2128569739/drv_usbfs.o
                                         0x2c (size before relaxing)
 .comment       0x000000000000002b       0x2c build/default/production/_ext/2128569739/drv_usbfs_device.o
 .comment       0x000000000000002b       0x2c build/default/production/_ext/1529399856/osal_freertos.o
 .comment       0x000000000000002b       0x2c build/default/production/_ext/60165520/plib_clk.o
 .comment       0x000000000000002b       0x2c build/default/production/_ext/1865200349/plib_evic.o
 .comment       0x000000000000002b       0x2c build/default/production/_ext/1865254177/plib_gpio.o
 .comment       0x000000000000002b       0x2c build/default/production/_ext/163028504/xc32_monitor.o
 .comment       0x000000000000002b       0x2c build/default/production/_ext/1881668453/sys_int.o
 .comment       0x000000000000002b       0x2c build/default/production/_ext/308758920/usb_device.o
 .comment       0x000000000000002b       0x2c build/default/production/_ext/308758920/usb_device_hid.o
 .comment       0x000000000000002b       0x2c build/default/production/_ext/1171490990/usb_device_init_data.o
 .comment       0x000000000000002b       0x2c build/default/production/_ext/1171490990/freertos_hooks.o
 .comment       0x000000000000002b       0x2c build/default/production/_ext/1171490990/initialization.o
 .comment       0x000000000000002b       0x2c build/default/production/_ext/1171490990/interrupts.o
 .comment       0x000000000000002b       0x2c build/default/production/_ext/1171490990/tasks.o
 .comment       0x000000000000002b       0x2c build/default/production/_ext/1171490990/exceptions.o
 .comment       0x000000000000002b       0x2c build/default/production/_ext/1665200909/heap_1.o
 .comment       0x000000000000002b       0x2c build/default/production/_ext/951553248/port.o
 .comment       0x000000000000002b       0x2c build/default/production/_ext/404212886/queue.o
 .comment       0x000000000000002b       0x2c build/default/production/_ext/404212886/list.o
 .comment       0x000000000000002b       0x2c build/default/production/_ext/404212886/FreeRTOS_tasks.o
 .comment       0x000000000000002b       0x2c build/default/production/_ext/404212886/timers.o
 .comment       0x000000000000002b       0x2c build/default/production/_ext/404212886/event_groups.o
 .comment       0x000000000000002b       0x2c build/default/production/_ext/404212886/croutine.o
 .comment       0x000000000000002b       0x2c build/default/production/_ext/404212886/stream_buffer.o
 .comment       0x000000000000002b       0x2c build/default/production/_ext/1360937237/app.o
 .comment       0x000000000000002b       0x2c build/default/production/_ext/1360937237/main.o
 .comment       0x000000000000002b       0x2c build/default/production/_ext/1360937237/mouse.o
 .comment       0x000000000000002b       0x2c c:/program files/microchip/xc32/v4.60/bin/bin/../../lib/gcc/pic32mx/8.3.1/../../../../pic32mx/lib\libpic32.a(default-on-reset.o)
 .comment       0x000000000000002b       0x2c c:/program files/microchip/xc32/v4.60/bin/bin/../../lib/gcc/pic32mx/8.3.1/../../../../pic32mx/lib\libpic32.a(default-on-bootstrap.o)
 .comment       0x000000000000002b       0x2c c:/program files/microchip/xc32/v4.60/bin/bin/../../lib/gcc/pic32mx/8.3.1/../../../../pic32mx/lib\libpic32.a(defaultinterrupt.o)
 .comment       0x000000000000002b       0x2c c:/program files/microchip/xc32/v4.60/bin/bin/../../lib/gcc/pic32mx/8.3.1/../../../../pic32mx/lib\libc-size-musl.a(memcmp.o)
 .comment       0x000000000000002b       0x2c c:/program files/microchip/xc32/v4.60/bin/bin/../../lib/gcc/pic32mx/8.3.1/../../../../pic32mx/lib\libc-size-musl.a(memcpy.o)
 .comment       0x000000000000002b       0x2c c:/program files/microchip/xc32/v4.60/bin/bin/../../lib/gcc/pic32mx/8.3.1/../../../../pic32mx/lib\libc-size-musl.a(memset.o)

.debug
 *.elf(.debug)
 *(.debug)

.line
 *.elf(.line)
 *(.line)

.debug_srcinfo
 *.elf(.debug_srcinfo)
 *(.debug_srcinfo)

.debug_sfnames
 *.elf(.debug_sfnames)
 *(.debug_sfnames)

.debug_aranges  0x0000000000000000      0xc50
 *.elf(.debug_aranges)
 *(.debug_aranges)
 .debug_aranges
                0x0000000000000000       0x60 build/default/production/_ext/2128569739/drv_usbfs.o
 .debug_aranges
                0x0000000000000060       0xc0 build/default/production/_ext/2128569739/drv_usbfs_device.o
 .debug_aranges
                0x0000000000000120       0x90 build/default/production/_ext/1529399856/osal_freertos.o
 .debug_aranges
                0x00000000000001b0       0x20 build/default/production/_ext/60165520/plib_clk.o
 .debug_aranges
                0x00000000000001d0       0x78 build/default/production/_ext/1865200349/plib_evic.o
 .debug_aranges
                0x0000000000000248       0x60 build/default/production/_ext/1865254177/plib_gpio.o
 .debug_aranges
                0x00000000000002a8       0x28 build/default/production/_ext/163028504/xc32_monitor.o
 .debug_aranges
                0x00000000000002d0       0x40 build/default/production/_ext/1881668453/sys_int.o
 .debug_aranges
                0x0000000000000310      0x1a0 build/default/production/_ext/308758920/usb_device.o
 .debug_aranges
                0x00000000000004b0       0x68 build/default/production/_ext/308758920/usb_device_hid.o
 .debug_aranges
                0x0000000000000518       0x18 build/default/production/_ext/1171490990/usb_device_init_data.o
 .debug_aranges
                0x0000000000000530       0x40 build/default/production/_ext/1171490990/freertos_hooks.o
 .debug_aranges
                0x0000000000000570       0x20 build/default/production/_ext/1171490990/initialization.o
 .debug_aranges
                0x0000000000000590       0x28 build/default/production/_ext/1171490990/interrupts_a.o
 .debug_aranges
                0x00000000000005b8       0x20 build/default/production/_ext/1171490990/interrupts.o
 .debug_aranges
                0x00000000000005d8       0x30 build/default/production/_ext/1171490990/tasks.o
 .debug_aranges
                0x0000000000000608       0x28 build/default/production/_ext/1171490990/exceptions.o
 .debug_aranges
                0x0000000000000630       0x40 build/default/production/_ext/1665200909/heap_1.o
 .debug_aranges
                0x0000000000000670       0x58 build/default/production/_ext/951553248/port.o
 .debug_aranges
                0x00000000000006c8       0x20 build/default/production/_ext/951553248/port_asm.o
 .debug_aranges
                0x00000000000006e8       0xd8 build/default/production/_ext/404212886/queue.o
 .debug_aranges
                0x00000000000007c0       0x40 build/default/production/_ext/404212886/list.o
 .debug_aranges
                0x0000000000000800      0x1b0 build/default/production/_ext/404212886/FreeRTOS_tasks.o
 .debug_aranges
                0x00000000000009b0       0x18 build/default/production/_ext/404212886/timers.o
 .debug_aranges
                0x00000000000009c8       0x60 build/default/production/_ext/404212886/event_groups.o
 .debug_aranges
                0x0000000000000a28       0x18 build/default/production/_ext/404212886/croutine.o
 .debug_aranges
                0x0000000000000a40       0xd0 build/default/production/_ext/404212886/stream_buffer.o
 .debug_aranges
                0x0000000000000b10       0x40 build/default/production/_ext/1360937237/app.o
 .debug_aranges
                0x0000000000000b50       0x20 build/default/production/_ext/1360937237/main.o
 .debug_aranges
                0x0000000000000b70       0x20 build/default/production/_ext/1360937237/mouse.o
 .debug_aranges
                0x0000000000000b90       0x20 c:/program files/microchip/xc32/v4.60/bin/bin/../../lib/gcc/pic32mx/8.3.1/../../../../pic32mx/lib\libpic32.a(default-on-reset.o)
 .debug_aranges
                0x0000000000000bb0       0x20 c:/program files/microchip/xc32/v4.60/bin/bin/../../lib/gcc/pic32mx/8.3.1/../../../../pic32mx/lib\libpic32.a(default-on-bootstrap.o)
 .debug_aranges
                0x0000000000000bd0       0x20 c:/program files/microchip/xc32/v4.60/bin/bin/../../lib/gcc/pic32mx/8.3.1/../../../../pic32mx/lib\libpic32.a(defaultinterrupt.o)
 .debug_aranges
                0x0000000000000bf0       0x20 c:/program files/microchip/xc32/v4.60/bin/bin/../../lib/gcc/pic32mx/8.3.1/../../../../pic32mx/lib\libc-size-musl.a(memcmp.o)
 .debug_aranges
                0x0000000000000c10       0x20 c:/program files/microchip/xc32/v4.60/bin/bin/../../lib/gcc/pic32mx/8.3.1/../../../../pic32mx/lib\libc-size-musl.a(memcpy.o)
 .debug_aranges
                0x0000000000000c30       0x20 c:/program files/microchip/xc32/v4.60/bin/bin/../../lib/gcc/pic32mx/8.3.1/../../../../pic32mx/lib\libc-size-musl.a(memset.o)

.debug_pubnames
 *.elf(.debug_pubnames)
 *(.debug_pubnames)

.debug_info     0x0000000000000000    0x1a56c
 *.elf(.debug_info .gnu.linkonce.wi.*)
 *(.debug_info .gnu.linkonce.wi.*)
 .debug_info    0x0000000000000000     0x2a61 build/default/production/_ext/2128569739/drv_usbfs.o
 .debug_info    0x0000000000002a61     0x5fad build/default/production/_ext/2128569739/drv_usbfs_device.o
 .debug_info    0x0000000000008a0e      0x79a build/default/production/_ext/1529399856/osal_freertos.o
 .debug_info    0x00000000000091a8      0x106 build/default/production/_ext/60165520/plib_clk.o
 .debug_info    0x00000000000092ae      0x41e build/default/production/_ext/1865200349/plib_evic.o
 .debug_info    0x00000000000096cc      0x307 build/default/production/_ext/1865254177/plib_gpio.o
 .debug_info    0x00000000000099d3       0xe7 build/default/production/_ext/163028504/xc32_monitor.o
 .debug_info    0x0000000000009aba      0x294 build/default/production/_ext/1881668453/sys_int.o
 .debug_info    0x0000000000009d4e     0x387f build/default/production/_ext/308758920/usb_device.o
 .debug_info    0x000000000000d5cd     0x1967 build/default/production/_ext/308758920/usb_device_hid.o
 .debug_info    0x000000000000ef34     0x13d7 build/default/production/_ext/1171490990/usb_device_init_data.o
 .debug_info    0x000000000001030b      0x1f6 build/default/production/_ext/1171490990/freertos_hooks.o
 .debug_info    0x0000000000010501      0xbd4 build/default/production/_ext/1171490990/initialization.o
 .debug_info    0x00000000000110d5       0x22 build/default/production/_ext/1171490990/interrupts_a.o
 .debug_info    0x00000000000110f7       0xbd build/default/production/_ext/1171490990/interrupts.o
 .debug_info    0x00000000000111b4      0x489 build/default/production/_ext/1171490990/tasks.o
 .debug_info    0x000000000001163d      0x2b5 build/default/production/_ext/1171490990/exceptions.o
 .debug_info    0x00000000000118f2      0x236 build/default/production/_ext/1665200909/heap_1.o
 .debug_info    0x0000000000011b28      0xba9 build/default/production/_ext/951553248/port.o
 .debug_info    0x00000000000126d1       0x26 build/default/production/_ext/951553248/port_asm.o
 .debug_info    0x00000000000126f7     0x1bcc build/default/production/_ext/404212886/queue.o
 .debug_info    0x00000000000142c3      0x2f3 build/default/production/_ext/404212886/list.o
 .debug_info    0x00000000000145b6     0x2bcf build/default/production/_ext/404212886/FreeRTOS_tasks.o
 .debug_info    0x0000000000017185       0x79 build/default/production/_ext/404212886/timers.o
 .debug_info    0x00000000000171fe      0xaca build/default/production/_ext/404212886/event_groups.o
 .debug_info    0x0000000000017cc8       0x79 build/default/production/_ext/404212886/croutine.o
 .debug_info    0x0000000000017d41     0x1716 build/default/production/_ext/404212886/stream_buffer.o
 .debug_info    0x0000000000019457      0xb72 build/default/production/_ext/1360937237/app.o
 .debug_info    0x0000000000019fc9       0xe2 build/default/production/_ext/1360937237/main.o
 .debug_info    0x000000000001a0ab      0x17a build/default/production/_ext/1360937237/mouse.o
 .debug_info    0x000000000001a225       0x3f c:/program files/microchip/xc32/v4.60/bin/bin/../../lib/gcc/pic32mx/8.3.1/../../../../pic32mx/lib\libpic32.a(default-on-reset.o)
 .debug_info    0x000000000001a264       0x3f c:/program files/microchip/xc32/v4.60/bin/bin/../../lib/gcc/pic32mx/8.3.1/../../../../pic32mx/lib\libpic32.a(default-on-bootstrap.o)
 .debug_info    0x000000000001a2a3       0x40 c:/program files/microchip/xc32/v4.60/bin/bin/../../lib/gcc/pic32mx/8.3.1/../../../../pic32mx/lib\libpic32.a(defaultinterrupt.o)
 .debug_info    0x000000000001a2e3       0xd2 c:/program files/microchip/xc32/v4.60/bin/bin/../../lib/gcc/pic32mx/8.3.1/../../../../pic32mx/lib\libc-size-musl.a(memcmp.o)
 .debug_info    0x000000000001a3b5       0xf7 c:/program files/microchip/xc32/v4.60/bin/bin/../../lib/gcc/pic32mx/8.3.1/../../../../pic32mx/lib\libc-size-musl.a(memcpy.o)
 .debug_info    0x000000000001a4ac       0xc0 c:/program files/microchip/xc32/v4.60/bin/bin/../../lib/gcc/pic32mx/8.3.1/../../../../pic32mx/lib\libc-size-musl.a(memset.o)

.debug_abbrev   0x0000000000000000     0x362a
 *.elf(.debug_abbrev)
 *(.debug_abbrev)
 .debug_abbrev  0x0000000000000000      0x457 build/default/production/_ext/2128569739/drv_usbfs.o
 .debug_abbrev  0x0000000000000457      0x529 build/default/production/_ext/2128569739/drv_usbfs_device.o
 .debug_abbrev  0x0000000000000980      0x1c9 build/default/production/_ext/1529399856/osal_freertos.o
 .debug_abbrev  0x0000000000000b49       0x6f build/default/production/_ext/60165520/plib_clk.o
 .debug_abbrev  0x0000000000000bb8      0x129 build/default/production/_ext/1865200349/plib_evic.o
 .debug_abbrev  0x0000000000000ce1       0xdd build/default/production/_ext/1865254177/plib_gpio.o
 .debug_abbrev  0x0000000000000dbe       0x9e build/default/production/_ext/163028504/xc32_monitor.o
 .debug_abbrev  0x0000000000000e5c      0x149 build/default/production/_ext/1881668453/sys_int.o
 .debug_abbrev  0x0000000000000fa5      0x39b build/default/production/_ext/308758920/usb_device.o
 .debug_abbrev  0x0000000000001340      0x367 build/default/production/_ext/308758920/usb_device_hid.o
 .debug_abbrev  0x00000000000016a7      0x200 build/default/production/_ext/1171490990/usb_device_init_data.o
 .debug_abbrev  0x00000000000018a7      0x112 build/default/production/_ext/1171490990/freertos_hooks.o
 .debug_abbrev  0x00000000000019b9      0x26e build/default/production/_ext/1171490990/initialization.o
 .debug_abbrev  0x0000000000001c27       0x12 build/default/production/_ext/1171490990/interrupts_a.o
 .debug_abbrev  0x0000000000001c39       0x67 build/default/production/_ext/1171490990/interrupts.o
 .debug_abbrev  0x0000000000001ca0      0x18e build/default/production/_ext/1171490990/tasks.o
 .debug_abbrev  0x0000000000001e2e       0x9f build/default/production/_ext/1171490990/exceptions.o
 .debug_abbrev  0x0000000000001ecd      0x164 build/default/production/_ext/1665200909/heap_1.o
 .debug_abbrev  0x0000000000002031      0x37e build/default/production/_ext/951553248/port.o
 .debug_abbrev  0x00000000000023af       0x14 build/default/production/_ext/951553248/port_asm.o
 .debug_abbrev  0x00000000000023c3      0x2ab build/default/production/_ext/404212886/queue.o
 .debug_abbrev  0x000000000000266e       0xfc build/default/production/_ext/404212886/list.o
 .debug_abbrev  0x000000000000276a      0x3d1 build/default/production/_ext/404212886/FreeRTOS_tasks.o
 .debug_abbrev  0x0000000000002b3b       0x26 build/default/production/_ext/404212886/timers.o
 .debug_abbrev  0x0000000000002b61      0x213 build/default/production/_ext/404212886/event_groups.o
 .debug_abbrev  0x0000000000002d74       0x26 build/default/production/_ext/404212886/croutine.o
 .debug_abbrev  0x0000000000002d9a      0x254 build/default/production/_ext/404212886/stream_buffer.o
 .debug_abbrev  0x0000000000002fee      0x267 build/default/production/_ext/1360937237/app.o
 .debug_abbrev  0x0000000000003255       0x82 build/default/production/_ext/1360937237/main.o
 .debug_abbrev  0x00000000000032d7       0xe4 build/default/production/_ext/1360937237/mouse.o
 .debug_abbrev  0x00000000000033bb       0x2e c:/program files/microchip/xc32/v4.60/bin/bin/../../lib/gcc/pic32mx/8.3.1/../../../../pic32mx/lib\libpic32.a(default-on-reset.o)
 .debug_abbrev  0x00000000000033e9       0x2e c:/program files/microchip/xc32/v4.60/bin/bin/../../lib/gcc/pic32mx/8.3.1/../../../../pic32mx/lib\libpic32.a(default-on-bootstrap.o)
 .debug_abbrev  0x0000000000003417       0x31 c:/program files/microchip/xc32/v4.60/bin/bin/../../lib/gcc/pic32mx/8.3.1/../../../../pic32mx/lib\libpic32.a(defaultinterrupt.o)
 .debug_abbrev  0x0000000000003448       0xa7 c:/program files/microchip/xc32/v4.60/bin/bin/../../lib/gcc/pic32mx/8.3.1/../../../../pic32mx/lib\libc-size-musl.a(memcmp.o)
 .debug_abbrev  0x00000000000034ef       0xaa c:/program files/microchip/xc32/v4.60/bin/bin/../../lib/gcc/pic32mx/8.3.1/../../../../pic32mx/lib\libc-size-musl.a(memcpy.o)
 .debug_abbrev  0x0000000000003599       0x91 c:/program files/microchip/xc32/v4.60/bin/bin/../../lib/gcc/pic32mx/8.3.1/../../../../pic32mx/lib\libc-size-musl.a(memset.o)

.debug_line     0x0000000000000000     0xc3a3
 *.elf(.debug_line)
 *(.debug_line)
 .debug_line    0x0000000000000000      0xa65 build/default/production/_ext/2128569739/drv_usbfs.o
 .debug_line    0x0000000000000a65     0x2266 build/default/production/_ext/2128569739/drv_usbfs_device.o
 .debug_line    0x0000000000002ccb      0x4cf build/default/production/_ext/1529399856/osal_freertos.o
 .debug_line    0x000000000000319a      0x160 build/default/production/_ext/60165520/plib_clk.o
 .debug_line    0x00000000000032fa      0x325 build/default/production/_ext/1865200349/plib_evic.o
 .debug_line    0x000000000000361f      0x25a build/default/production/_ext/1865254177/plib_gpio.o
 .debug_line    0x0000000000003879       0xee build/default/production/_ext/163028504/xc32_monitor.o
 .debug_line    0x0000000000003967      0x1d2 build/default/production/_ext/1881668453/sys_int.o
 .debug_line    0x0000000000003b39     0x1898 build/default/production/_ext/308758920/usb_device.o
 .debug_line    0x00000000000053d1      0xa45 build/default/production/_ext/308758920/usb_device_hid.o
 .debug_line    0x0000000000005e16      0x379 build/default/production/_ext/1171490990/usb_device_init_data.o
 .debug_line    0x000000000000618f      0x1cc build/default/production/_ext/1171490990/freertos_hooks.o
 .debug_line    0x000000000000635b      0x4a2 build/default/production/_ext/1171490990/initialization.o
 .debug_line    0x00000000000067fd       0x6f build/default/production/_ext/1171490990/interrupts_a.o
 .debug_line    0x000000000000686c       0x91 build/default/production/_ext/1171490990/interrupts.o
 .debug_line    0x00000000000068fd      0x357 build/default/production/_ext/1171490990/tasks.o
 .debug_line    0x0000000000006c54      0x1b4 build/default/production/_ext/1171490990/exceptions.o
 .debug_line    0x0000000000006e08      0x284 build/default/production/_ext/1665200909/heap_1.o
 .debug_line    0x000000000000708c      0x36f build/default/production/_ext/951553248/port.o
 .debug_line    0x00000000000073fb       0xfc build/default/production/_ext/951553248/port_asm.o
 .debug_line    0x00000000000074f7      0xf05 build/default/production/_ext/404212886/queue.o
 .debug_line    0x00000000000083fc      0x354 build/default/production/_ext/404212886/list.o
 .debug_line    0x0000000000008750     0x1c96 build/default/production/_ext/404212886/FreeRTOS_tasks.o
 .debug_line    0x000000000000a3e6       0x1d build/default/production/_ext/404212886/timers.o
 .debug_line    0x000000000000a403      0x660 build/default/production/_ext/404212886/event_groups.o
 .debug_line    0x000000000000aa63       0x1d build/default/production/_ext/404212886/croutine.o
 .debug_line    0x000000000000aa80      0xba4 build/default/production/_ext/404212886/stream_buffer.o
 .debug_line    0x000000000000b624      0x644 build/default/production/_ext/1360937237/app.o
 .debug_line    0x000000000000bc68       0xb7 build/default/production/_ext/1360937237/main.o
 .debug_line    0x000000000000bd1f       0xeb build/default/production/_ext/1360937237/mouse.o
 .debug_line    0x000000000000be0a       0xa5 c:/program files/microchip/xc32/v4.60/bin/bin/../../lib/gcc/pic32mx/8.3.1/../../../../pic32mx/lib\libpic32.a(default-on-reset.o)
 .debug_line    0x000000000000beaf       0xa9 c:/program files/microchip/xc32/v4.60/bin/bin/../../lib/gcc/pic32mx/8.3.1/../../../../pic32mx/lib\libpic32.a(default-on-bootstrap.o)
 .debug_line    0x000000000000bf58       0xc8 c:/program files/microchip/xc32/v4.60/bin/bin/../../lib/gcc/pic32mx/8.3.1/../../../../pic32mx/lib\libpic32.a(defaultinterrupt.o)
 .debug_line    0x000000000000c020      0x129 c:/program files/microchip/xc32/v4.60/bin/bin/../../lib/gcc/pic32mx/8.3.1/../../../../pic32mx/lib\libc-size-musl.a(memcmp.o)
 .debug_line    0x000000000000c149      0x133 c:/program files/microchip/xc32/v4.60/bin/bin/../../lib/gcc/pic32mx/8.3.1/../../../../pic32mx/lib\libc-size-musl.a(memcpy.o)
 .debug_line    0x000000000000c27c      0x127 c:/program files/microchip/xc32/v4.60/bin/bin/../../lib/gcc/pic32mx/8.3.1/../../../../pic32mx/lib\libc-size-musl.a(memset.o)

.debug_frame    0x0000000000000000     0x1fd0
 *.elf(.debug_frame)
 *(.debug_frame)
 .debug_frame   0x0000000000000000       0xf0 build/default/production/_ext/2128569739/drv_usbfs.o
 .debug_frame   0x00000000000000f0      0x228 build/default/production/_ext/2128569739/drv_usbfs_device.o
 .debug_frame   0x0000000000000318      0x1b4 build/default/production/_ext/1529399856/osal_freertos.o
 .debug_frame   0x00000000000004cc       0x20 build/default/production/_ext/60165520/plib_clk.o
 .debug_frame   0x00000000000004ec      0x110 build/default/production/_ext/1865200349/plib_evic.o
 .debug_frame   0x00000000000005fc       0xa0 build/default/production/_ext/1865254177/plib_gpio.o
 .debug_frame   0x000000000000069c       0x30 build/default/production/_ext/163028504/xc32_monitor.o
 .debug_frame   0x00000000000006cc       0xa0 build/default/production/_ext/1881668453/sys_int.o
 .debug_frame   0x000000000000076c      0x594 build/default/production/_ext/308758920/usb_device.o
 .debug_frame   0x0000000000000d00      0x150 build/default/production/_ext/308758920/usb_device_hid.o
 .debug_frame   0x0000000000000e50       0x7c build/default/production/_ext/1171490990/freertos_hooks.o
 .debug_frame   0x0000000000000ecc       0x2c build/default/production/_ext/1171490990/initialization.o
 .debug_frame   0x0000000000000ef8       0x2c build/default/production/_ext/1171490990/interrupts.o
 .debug_frame   0x0000000000000f24       0x5c build/default/production/_ext/1171490990/tasks.o
 .debug_frame   0x0000000000000f80       0x40 build/default/production/_ext/1171490990/exceptions.o
 .debug_frame   0x0000000000000fc0       0x70 build/default/production/_ext/1665200909/heap_1.o
 .debug_frame   0x0000000000001030       0xf0 build/default/production/_ext/951553248/port.o
 .debug_frame   0x0000000000001120      0x300 build/default/production/_ext/404212886/queue.o
 .debug_frame   0x0000000000001420       0x60 build/default/production/_ext/404212886/list.o
 .debug_frame   0x0000000000001480      0x5a0 build/default/production/_ext/404212886/FreeRTOS_tasks.o
 .debug_frame   0x0000000000001a20      0x134 build/default/production/_ext/404212886/event_groups.o
 .debug_frame   0x0000000000001b54      0x2cc build/default/production/_ext/404212886/stream_buffer.o
 .debug_frame   0x0000000000001e20       0xa8 build/default/production/_ext/1360937237/app.o
 .debug_frame   0x0000000000001ec8       0x28 build/default/production/_ext/1360937237/main.o
 .debug_frame   0x0000000000001ef0       0x20 build/default/production/_ext/1360937237/mouse.o
 .debug_frame   0x0000000000001f10       0x20 c:/program files/microchip/xc32/v4.60/bin/bin/../../lib/gcc/pic32mx/8.3.1/../../../../pic32mx/lib\libpic32.a(default-on-reset.o)
 .debug_frame   0x0000000000001f30       0x20 c:/program files/microchip/xc32/v4.60/bin/bin/../../lib/gcc/pic32mx/8.3.1/../../../../pic32mx/lib\libpic32.a(default-on-bootstrap.o)
 .debug_frame   0x0000000000001f50       0x20 c:/program files/microchip/xc32/v4.60/bin/bin/../../lib/gcc/pic32mx/8.3.1/../../../../pic32mx/lib\libpic32.a(defaultinterrupt.o)
 .debug_frame   0x0000000000001f70       0x20 c:/program files/microchip/xc32/v4.60/bin/bin/../../lib/gcc/pic32mx/8.3.1/../../../../pic32mx/lib\libc-size-musl.a(memcmp.o)
 .debug_frame   0x0000000000001f90       0x20 c:/program files/microchip/xc32/v4.60/bin/bin/../../lib/gcc/pic32mx/8.3.1/../../../../pic32mx/lib\libc-size-musl.a(memcpy.o)
 .debug_frame   0x0000000000001fb0       0x20 c:/program files/microchip/xc32/v4.60/bin/bin/../../lib/gcc/pic32mx/8.3.1/../../../../pic32mx/lib\libc-size-musl.a(memset.o)

.debug_str      0x0000000000000000    0x16709
 *.elf(.debug_str)
 *(.debug_str)
 .debug_str     0x0000000000000000     0x229c build/default/production/_ext/2128569739/drv_usbfs.o
 .debug_str     0x000000000000229c     0x2ef8 build/default/production/_ext/2128569739/drv_usbfs_device.o
 .debug_str     0x0000000000005194      0x6b7 build/default/production/_ext/1529399856/osal_freertos.o
 .debug_str     0x000000000000584b      0x2e5 build/default/production/_ext/60165520/plib_clk.o
 .debug_str     0x0000000000005b30      0x42d build/default/production/_ext/1865200349/plib_evic.o
 .debug_str     0x0000000000005f5d      0x3a0 build/default/production/_ext/1865254177/plib_gpio.o
 .debug_str     0x00000000000062fd      0x262 build/default/production/_ext/163028504/xc32_monitor.o
 .debug_str     0x000000000000655f      0x3c0 build/default/production/_ext/1881668453/sys_int.o
 .debug_str     0x000000000000691f     0x2c9f build/default/production/_ext/308758920/usb_device.o
 .debug_str     0x00000000000095be     0x1c79 build/default/production/_ext/308758920/usb_device_hid.o
 .debug_str     0x000000000000b237     0x1948 build/default/production/_ext/1171490990/usb_device_init_data.o
 .debug_str     0x000000000000cb7f      0x390 build/default/production/_ext/1171490990/freertos_hooks.o
 .debug_str     0x000000000000cf0f     0x1275 build/default/production/_ext/1171490990/initialization.o
 .debug_str     0x000000000000e184       0x63 build/default/production/_ext/1171490990/interrupts_a.o
 .debug_str     0x000000000000e1e7      0x2cc build/default/production/_ext/1171490990/interrupts.o
 .debug_str     0x000000000000e4b3      0xb5d build/default/production/_ext/1171490990/tasks.o
 .debug_str     0x000000000000f010      0xaae build/default/production/_ext/1171490990/exceptions.o
 .debug_str     0x000000000000fabe      0x3bc build/default/production/_ext/1665200909/heap_1.o
 .debug_str     0x000000000000fe7a      0x728 build/default/production/_ext/951553248/port.o
 .debug_str     0x00000000000105a2       0x88 build/default/production/_ext/951553248/port_asm.o
 .debug_str     0x000000000001062a      0xadc build/default/production/_ext/404212886/queue.o
 .debug_str     0x0000000000011106      0x3f1 build/default/production/_ext/404212886/list.o
 .debug_str     0x00000000000114f7     0x116d build/default/production/_ext/404212886/FreeRTOS_tasks.o
 .debug_str     0x0000000000012664      0x2b0 build/default/production/_ext/404212886/timers.o
 .debug_str     0x0000000000012914      0x729 build/default/production/_ext/404212886/event_groups.o
 .debug_str     0x000000000001303d      0x2b2 build/default/production/_ext/404212886/croutine.o
 .debug_str     0x00000000000132ef      0xa76 build/default/production/_ext/404212886/stream_buffer.o
 .debug_str     0x0000000000013d65     0x1233 build/default/production/_ext/1360937237/app.o
 .debug_str     0x0000000000014f98      0x2b1 build/default/production/_ext/1360937237/main.o
 .debug_str     0x0000000000015249      0x341 build/default/production/_ext/1360937237/mouse.o
 .debug_str     0x000000000001558a      0x331 c:/program files/microchip/xc32/v4.60/bin/bin/../../lib/gcc/pic32mx/8.3.1/../../../../pic32mx/lib\libpic32.a(default-on-reset.o)
 .debug_str     0x00000000000158bb      0x339 c:/program files/microchip/xc32/v4.60/bin/bin/../../lib/gcc/pic32mx/8.3.1/../../../../pic32mx/lib\libpic32.a(default-on-bootstrap.o)
 .debug_str     0x0000000000015bf4      0x34b c:/program files/microchip/xc32/v4.60/bin/bin/../../lib/gcc/pic32mx/8.3.1/../../../../pic32mx/lib\libpic32.a(defaultinterrupt.o)
 .debug_str     0x0000000000015f3f      0x28e c:/program files/microchip/xc32/v4.60/bin/bin/../../lib/gcc/pic32mx/8.3.1/../../../../pic32mx/lib\libc-size-musl.a(memcmp.o)
 .debug_str     0x00000000000161cd      0x2a8 c:/program files/microchip/xc32/v4.60/bin/bin/../../lib/gcc/pic32mx/8.3.1/../../../../pic32mx/lib\libc-size-musl.a(memcpy.o)
 .debug_str     0x0000000000016475      0x294 c:/program files/microchip/xc32/v4.60/bin/bin/../../lib/gcc/pic32mx/8.3.1/../../../../pic32mx/lib\libc-size-musl.a(memset.o)

.debug_loc      0x0000000000000000     0xf2b4
 *.elf(.debug_loc)
 *(.debug_loc)
 .debug_loc     0x0000000000000000      0x674 build/default/production/_ext/2128569739/drv_usbfs.o
 .debug_loc     0x0000000000000674     0x4068 build/default/production/_ext/2128569739/drv_usbfs_device.o
 .debug_loc     0x00000000000046dc      0x573 build/default/production/_ext/1529399856/osal_freertos.o
 .debug_loc     0x0000000000004c4f      0x1af build/default/production/_ext/1865200349/plib_evic.o
 .debug_loc     0x0000000000004dfe      0x172 build/default/production/_ext/1865254177/plib_gpio.o
 .debug_loc     0x0000000000004f70      0x102 build/default/production/_ext/1881668453/sys_int.o
 .debug_loc     0x0000000000005072     0x26cd build/default/production/_ext/308758920/usb_device.o
 .debug_loc     0x000000000000773f     0x1250 build/default/production/_ext/308758920/usb_device_hid.o
 .debug_loc     0x000000000000898f       0xb6 build/default/production/_ext/1171490990/freertos_hooks.o
 .debug_loc     0x0000000000008a45       0x25 build/default/production/_ext/1171490990/initialization.o
 .debug_loc     0x0000000000008a6a       0x4a build/default/production/_ext/1171490990/tasks.o
 .debug_loc     0x0000000000008ab4       0xb8 build/default/production/_ext/1665200909/heap_1.o
 .debug_loc     0x0000000000008b6c      0x13e build/default/production/_ext/951553248/port.o
 .debug_loc     0x0000000000008caa     0x1674 build/default/production/_ext/404212886/queue.o
 .debug_loc     0x000000000000a31e       0x61 build/default/production/_ext/404212886/list.o
 .debug_loc     0x000000000000a37f     0x2749 build/default/production/_ext/404212886/FreeRTOS_tasks.o
 .debug_loc     0x000000000000cac8      0xb19 build/default/production/_ext/404212886/event_groups.o
 .debug_loc     0x000000000000d5e1     0x15eb build/default/production/_ext/404212886/stream_buffer.o
 .debug_loc     0x000000000000ebcc      0x436 build/default/production/_ext/1360937237/app.o
 .debug_loc     0x000000000000f002       0x32 build/default/production/_ext/1360937237/mouse.o
 .debug_loc     0x000000000000f034       0xf4 c:/program files/microchip/xc32/v4.60/bin/bin/../../lib/gcc/pic32mx/8.3.1/../../../../pic32mx/lib\libc-size-musl.a(memcmp.o)
 .debug_loc     0x000000000000f128       0xd6 c:/program files/microchip/xc32/v4.60/bin/bin/../../lib/gcc/pic32mx/8.3.1/../../../../pic32mx/lib\libc-size-musl.a(memcpy.o)
 .debug_loc     0x000000000000f1fe       0xb6 c:/program files/microchip/xc32/v4.60/bin/bin/../../lib/gcc/pic32mx/8.3.1/../../../../pic32mx/lib\libc-size-musl.a(memset.o)

.debug_macinfo
 *.elf(.debug_macinfo)
 *(.debug_macinfo)

.debug_weaknames
 *.elf(.debug_weaknames)
 *(.debug_weaknames)

.debug_funcnames
 *.elf(.debug_funcnames)
 *(.debug_funcnames)

.debug_typenames
 *.elf(.debug_typenames)
 *(.debug_typenames)

.debug_varnames
 *.elf(.debug_varnames)
 *(.debug_varnames)

.debug_pubtypes
 *.elf(.debug_pubtypes)
 *(.debug_pubtypes)

.debug_ranges   0x0000000000000000     0x1480
 *.elf(.debug_ranges)
 *(.debug_ranges)
 .debug_ranges  0x0000000000000000      0x110 build/default/production/_ext/2128569739/drv_usbfs.o
 .debug_ranges  0x0000000000000110      0x800 build/default/production/_ext/2128569739/drv_usbfs_device.o
 .debug_ranges  0x0000000000000910       0x80 build/default/production/_ext/1529399856/osal_freertos.o
 .debug_ranges  0x0000000000000990       0x10 build/default/production/_ext/60165520/plib_clk.o
 .debug_ranges  0x00000000000009a0       0x68 build/default/production/_ext/1865200349/plib_evic.o
 .debug_ranges  0x0000000000000a08       0x50 build/default/production/_ext/1865254177/plib_gpio.o
 .debug_ranges  0x0000000000000a58       0x18 build/default/production/_ext/163028504/xc32_monitor.o
 .debug_ranges  0x0000000000000a70       0x30 build/default/production/_ext/1881668453/sys_int.o
 .debug_ranges  0x0000000000000aa0      0x190 build/default/production/_ext/308758920/usb_device.o
 .debug_ranges  0x0000000000000c30       0x58 build/default/production/_ext/308758920/usb_device_hid.o
 .debug_ranges  0x0000000000000c88       0x30 build/default/production/_ext/1171490990/freertos_hooks.o
 .debug_ranges  0x0000000000000cb8       0x10 build/default/production/_ext/1171490990/initialization.o
 .debug_ranges  0x0000000000000cc8       0x20 build/default/production/_ext/1171490990/interrupts_a.o
 .debug_ranges  0x0000000000000ce8       0x10 build/default/production/_ext/1171490990/interrupts.o
 .debug_ranges  0x0000000000000cf8       0x20 build/default/production/_ext/1171490990/tasks.o
 .debug_ranges  0x0000000000000d18       0x18 build/default/production/_ext/1171490990/exceptions.o
 .debug_ranges  0x0000000000000d30       0x30 build/default/production/_ext/1665200909/heap_1.o
 .debug_ranges  0x0000000000000d60       0x48 build/default/production/_ext/951553248/port.o
 .debug_ranges  0x0000000000000da8      0x1d0 build/default/production/_ext/404212886/queue.o
 .debug_ranges  0x0000000000000f78       0x30 build/default/production/_ext/404212886/list.o
 .debug_ranges  0x0000000000000fa8      0x2e0 build/default/production/_ext/404212886/FreeRTOS_tasks.o
 .debug_ranges  0x0000000000001288       0x68 build/default/production/_ext/404212886/event_groups.o
 .debug_ranges  0x00000000000012f0       0xe0 build/default/production/_ext/404212886/stream_buffer.o
 .debug_ranges  0x00000000000013d0       0x30 build/default/production/_ext/1360937237/app.o
 .debug_ranges  0x0000000000001400       0x10 build/default/production/_ext/1360937237/main.o
 .debug_ranges  0x0000000000001410       0x10 build/default/production/_ext/1360937237/mouse.o
 .debug_ranges  0x0000000000001420       0x10 c:/program files/microchip/xc32/v4.60/bin/bin/../../lib/gcc/pic32mx/8.3.1/../../../../pic32mx/lib\libpic32.a(default-on-reset.o)
 .debug_ranges  0x0000000000001430       0x10 c:/program files/microchip/xc32/v4.60/bin/bin/../../lib/gcc/pic32mx/8.3.1/../../../../pic32mx/lib\libpic32.a(default-on-bootstrap.o)
 .debug_ranges  0x0000000000001440       0x10 c:/program files/microchip/xc32/v4.60/bin/bin/../../lib/gcc/pic32mx/8.3.1/../../../../pic32mx/lib\libpic32.a(defaultinterrupt.o)
 .debug_ranges  0x0000000000001450       0x10 c:/program files/microchip/xc32/v4.60/bin/bin/../../lib/gcc/pic32mx/8.3.1/../../../../pic32mx/lib\libc-size-musl.a(memcmp.o)
 .debug_ranges  0x0000000000001460       0x10 c:/program files/microchip/xc32/v4.60/bin/bin/../../lib/gcc/pic32mx/8.3.1/../../../../pic32mx/lib\libc-size-musl.a(memcpy.o)
 .debug_ranges  0x0000000000001470       0x10 c:/program files/microchip/xc32/v4.60/bin/bin/../../lib/gcc/pic32mx/8.3.1/../../../../pic32mx/lib\libc-size-musl.a(memset.o)

.gnu.attributes
                0x0000000000000000       0x10
 *(.gnu.attributes)
 .gnu.attributes
                0x0000000000000000       0x10 c:/program files/microchip/xc32/v4.60/bin/bin/../../lib/gcc/pic32mx/8.3.1/../../../../pic32mx/lib\debug-exception-return.o
 .gnu.attributes
                0x0000000000000010       0x10 build/default/production/_ext/2128569739/drv_usbfs.o
 .gnu.attributes
                0x0000000000000020       0x10 build/default/production/_ext/2128569739/drv_usbfs_device.o
 .gnu.attributes
                0x0000000000000030       0x10 build/default/production/_ext/1529399856/osal_freertos.o
 .gnu.attributes
                0x0000000000000040       0x10 build/default/production/_ext/60165520/plib_clk.o
 .gnu.attributes
                0x0000000000000050       0x10 build/default/production/_ext/1865200349/plib_evic.o
 .gnu.attributes
                0x0000000000000060       0x10 build/default/production/_ext/1865254177/plib_gpio.o
 .gnu.attributes
                0x0000000000000070       0x10 build/default/production/_ext/163028504/xc32_monitor.o
 .gnu.attributes
                0x0000000000000080       0x10 build/default/production/_ext/1881668453/sys_int.o
 .gnu.attributes
                0x0000000000000090       0x10 build/default/production/_ext/308758920/usb_device.o
 .gnu.attributes
                0x00000000000000a0       0x10 build/default/production/_ext/308758920/usb_device_hid.o
 .gnu.attributes
                0x00000000000000b0       0x10 build/default/production/_ext/1171490990/usb_device_init_data.o
 .gnu.attributes
                0x00000000000000c0       0x10 build/default/production/_ext/1171490990/freertos_hooks.o
 .gnu.attributes
                0x00000000000000d0       0x10 build/default/production/_ext/1171490990/initialization.o
 .gnu.attributes
                0x00000000000000e0       0x10 build/default/production/_ext/1171490990/interrupts_a.o
 .gnu.attributes
                0x00000000000000f0       0x10 build/default/production/_ext/1171490990/interrupts.o
 .gnu.attributes
                0x0000000000000100       0x10 build/default/production/_ext/1171490990/tasks.o
 .gnu.attributes
                0x0000000000000110       0x10 build/default/production/_ext/1171490990/exceptions.o
 .gnu.attributes
                0x0000000000000120       0x10 build/default/production/_ext/1665200909/heap_1.o
 .gnu.attributes
                0x0000000000000130       0x10 build/default/production/_ext/951553248/port.o
 .gnu.attributes
                0x0000000000000140       0x10 build/default/production/_ext/951553248/port_asm.o
 .gnu.attributes
                0x0000000000000150       0x10 build/default/production/_ext/404212886/queue.o
 .gnu.attributes
                0x0000000000000160       0x10 build/default/production/_ext/404212886/list.o
 .gnu.attributes
                0x0000000000000170       0x10 build/default/production/_ext/404212886/FreeRTOS_tasks.o
 .gnu.attributes
                0x0000000000000180       0x10 build/default/production/_ext/404212886/timers.o
 .gnu.attributes
                0x0000000000000190       0x10 build/default/production/_ext/404212886/event_groups.o
 .gnu.attributes
                0x00000000000001a0       0x10 build/default/production/_ext/404212886/croutine.o
 .gnu.attributes
                0x00000000000001b0       0x10 build/default/production/_ext/404212886/stream_buffer.o
 .gnu.attributes
                0x00000000000001c0       0x10 build/default/production/_ext/1360937237/app.o
 .gnu.attributes
                0x00000000000001d0       0x10 build/default/production/_ext/1360937237/main.o
 .gnu.attributes
                0x00000000000001e0       0x10 build/default/production/_ext/1360937237/mouse.o
 .gnu.attributes
                0x00000000000001f0       0x10 C:\Users\aryll\AppData\Local\Temp\ccKXWNGz.o
 .gnu.attributes
                0x0000000000000200       0x10 C:\Users\aryll\AppData\Local\Temp\ccvbz1Nu.o
 .gnu.attributes
                0x0000000000000210       0x10 C:\Users\aryll\AppData\Local\Temp\cci6AvUz.o
 .gnu.attributes
                0x0000000000000220       0x10 c:/program files/microchip/xc32/v4.60/bin/bin/../../lib/gcc/pic32mx/8.3.1/../../../../pic32mx/lib\pic32_software_reset.o
 .gnu.attributes
                0x0000000000000230       0x10 c:/program files/microchip/xc32/v4.60/bin/bin/../../lib/gcc/pic32mx/8.3.1/../../../../pic32mx/lib\libpic32.a(default-on-reset.o)
 .gnu.attributes
                0x0000000000000240       0x10 c:/program files/microchip/xc32/v4.60/bin/bin/../../lib/gcc/pic32mx/8.3.1/../../../../pic32mx/lib\libpic32.a(default-on-bootstrap.o)
 .gnu.attributes
                0x0000000000000250       0x10 c:/program files/microchip/xc32/v4.60/bin/bin/../../lib/gcc/pic32mx/8.3.1/../../../../pic32mx/lib\libpic32.a(default-nmi-handler.o)
 .gnu.attributes
                0x0000000000000260       0x10 c:/program files/microchip/xc32/v4.60/bin/bin/../../lib/gcc/pic32mx/8.3.1/../../../../pic32mx/lib\libpic32.a(pic32_data_init_core.o)
 .gnu.attributes
                0x0000000000000270       0x10 c:/program files/microchip/xc32/v4.60/bin/bin/../../lib/gcc/pic32mx/8.3.1/../../../../pic32mx/lib\libpic32.a(general-exception.o)
 .gnu.attributes
                0x0000000000000280       0x10 c:/program files/microchip/xc32/v4.60/bin/bin/../../lib/gcc/pic32mx/8.3.1/../../../../pic32mx/lib\libpic32.a(vector0.o)
 .gnu.attributes
                0x0000000000000290       0x10 c:/program files/microchip/xc32/v4.60/bin/bin/../../lib/gcc/pic32mx/8.3.1/../../../../pic32mx/lib\libpic32.a(vector2.o)
 .gnu.attributes
                0x00000000000002a0       0x10 c:/program files/microchip/xc32/v4.60/bin/bin/../../lib/gcc/pic32mx/8.3.1/../../../../pic32mx/lib\libpic32.a(vector3.o)
 .gnu.attributes
                0x00000000000002b0       0x10 c:/program files/microchip/xc32/v4.60/bin/bin/../../lib/gcc/pic32mx/8.3.1/../../../../pic32mx/lib\libpic32.a(vector5.o)
 .gnu.attributes
                0x00000000000002c0       0x10 c:/program files/microchip/xc32/v4.60/bin/bin/../../lib/gcc/pic32mx/8.3.1/../../../../pic32mx/lib\libpic32.a(vector6.o)
 .gnu.attributes
                0x00000000000002d0       0x10 c:/program files/microchip/xc32/v4.60/bin/bin/../../lib/gcc/pic32mx/8.3.1/../../../../pic32mx/lib\libpic32.a(vector7.o)
 .gnu.attributes
                0x00000000000002e0       0x10 c:/program files/microchip/xc32/v4.60/bin/bin/../../lib/gcc/pic32mx/8.3.1/../../../../pic32mx/lib\libpic32.a(vector8.o)
 .gnu.attributes
                0x00000000000002f0       0x10 c:/program files/microchip/xc32/v4.60/bin/bin/../../lib/gcc/pic32mx/8.3.1/../../../../pic32mx/lib\libpic32.a(vector9.o)
 .gnu.attributes
                0x0000000000000300       0x10 c:/program files/microchip/xc32/v4.60/bin/bin/../../lib/gcc/pic32mx/8.3.1/../../../../pic32mx/lib\libpic32.a(vector10.o)
 .gnu.attributes
                0x0000000000000310       0x10 c:/program files/microchip/xc32/v4.60/bin/bin/../../lib/gcc/pic32mx/8.3.1/../../../../pic32mx/lib\libpic32.a(vector11.o)
 .gnu.attributes
                0x0000000000000320       0x10 c:/program files/microchip/xc32/v4.60/bin/bin/../../lib/gcc/pic32mx/8.3.1/../../../../pic32mx/lib\libpic32.a(vector12.o)
 .gnu.attributes
                0x0000000000000330       0x10 c:/program files/microchip/xc32/v4.60/bin/bin/../../lib/gcc/pic32mx/8.3.1/../../../../pic32mx/lib\libpic32.a(vector13.o)
 .gnu.attributes
                0x0000000000000340       0x10 c:/program files/microchip/xc32/v4.60/bin/bin/../../lib/gcc/pic32mx/8.3.1/../../../../pic32mx/lib\libpic32.a(vector14.o)
 .gnu.attributes
                0x0000000000000350       0x10 c:/program files/microchip/xc32/v4.60/bin/bin/../../lib/gcc/pic32mx/8.3.1/../../../../pic32mx/lib\libpic32.a(vector15.o)
 .gnu.attributes
                0x0000000000000360       0x10 c:/program files/microchip/xc32/v4.60/bin/bin/../../lib/gcc/pic32mx/8.3.1/../../../../pic32mx/lib\libpic32.a(vector16.o)
 .gnu.attributes
                0x0000000000000370       0x10 c:/program files/microchip/xc32/v4.60/bin/bin/../../lib/gcc/pic32mx/8.3.1/../../../../pic32mx/lib\libpic32.a(vector17.o)
 .gnu.attributes
                0x0000000000000380       0x10 c:/program files/microchip/xc32/v4.60/bin/bin/../../lib/gcc/pic32mx/8.3.1/../../../../pic32mx/lib\libpic32.a(vector18.o)
 .gnu.attributes
                0x0000000000000390       0x10 c:/program files/microchip/xc32/v4.60/bin/bin/../../lib/gcc/pic32mx/8.3.1/../../../../pic32mx/lib\libpic32.a(vector19.o)
 .gnu.attributes
                0x00000000000003a0       0x10 c:/program files/microchip/xc32/v4.60/bin/bin/../../lib/gcc/pic32mx/8.3.1/../../../../pic32mx/lib\libpic32.a(vector20.o)
 .gnu.attributes
                0x00000000000003b0       0x10 c:/program files/microchip/xc32/v4.60/bin/bin/../../lib/gcc/pic32mx/8.3.1/../../../../pic32mx/lib\libpic32.a(vector21.o)
 .gnu.attributes
                0x00000000000003c0       0x10 c:/program files/microchip/xc32/v4.60/bin/bin/../../lib/gcc/pic32mx/8.3.1/../../../../pic32mx/lib\libpic32.a(vector22.o)
 .gnu.attributes
                0x00000000000003d0       0x10 c:/program files/microchip/xc32/v4.60/bin/bin/../../lib/gcc/pic32mx/8.3.1/../../../../pic32mx/lib\libpic32.a(vector23.o)
 .gnu.attributes
                0x00000000000003e0       0x10 c:/program files/microchip/xc32/v4.60/bin/bin/../../lib/gcc/pic32mx/8.3.1/../../../../pic32mx/lib\libpic32.a(vector24.o)
 .gnu.attributes
                0x00000000000003f0       0x10 c:/program files/microchip/xc32/v4.60/bin/bin/../../lib/gcc/pic32mx/8.3.1/../../../../pic32mx/lib\libpic32.a(vector25.o)
 .gnu.attributes
                0x0000000000000400       0x10 c:/program files/microchip/xc32/v4.60/bin/bin/../../lib/gcc/pic32mx/8.3.1/../../../../pic32mx/lib\libpic32.a(vector26.o)
 .gnu.attributes
                0x0000000000000410       0x10 c:/program files/microchip/xc32/v4.60/bin/bin/../../lib/gcc/pic32mx/8.3.1/../../../../pic32mx/lib\libpic32.a(vector27.o)
 .gnu.attributes
                0x0000000000000420       0x10 c:/program files/microchip/xc32/v4.60/bin/bin/../../lib/gcc/pic32mx/8.3.1/../../../../pic32mx/lib\libpic32.a(vector28.o)
 .gnu.attributes
                0x0000000000000430       0x10 c:/program files/microchip/xc32/v4.60/bin/bin/../../lib/gcc/pic32mx/8.3.1/../../../../pic32mx/lib\libpic32.a(vector29.o)
 .gnu.attributes
                0x0000000000000440       0x10 c:/program files/microchip/xc32/v4.60/bin/bin/../../lib/gcc/pic32mx/8.3.1/../../../../pic32mx/lib\libpic32.a(vector31.o)
 .gnu.attributes
                0x0000000000000450       0x10 c:/program files/microchip/xc32/v4.60/bin/bin/../../lib/gcc/pic32mx/8.3.1/../../../../pic32mx/lib\libpic32.a(vector32.o)
 .gnu.attributes
                0x0000000000000460       0x10 c:/program files/microchip/xc32/v4.60/bin/bin/../../lib/gcc/pic32mx/8.3.1/../../../../pic32mx/lib\libpic32.a(vector33.o)
 .gnu.attributes
                0x0000000000000470       0x10 c:/program files/microchip/xc32/v4.60/bin/bin/../../lib/gcc/pic32mx/8.3.1/../../../../pic32mx/lib\libpic32.a(vector34.o)
 .gnu.attributes
                0x0000000000000480       0x10 c:/program files/microchip/xc32/v4.60/bin/bin/../../lib/gcc/pic32mx/8.3.1/../../../../pic32mx/lib\libpic32.a(vector35.o)
 .gnu.attributes
                0x0000000000000490       0x10 c:/program files/microchip/xc32/v4.60/bin/bin/../../lib/gcc/pic32mx/8.3.1/../../../../pic32mx/lib\libpic32.a(vector36.o)
 .gnu.attributes
                0x00000000000004a0       0x10 c:/program files/microchip/xc32/v4.60/bin/bin/../../lib/gcc/pic32mx/8.3.1/../../../../pic32mx/lib\libpic32.a(vector37.o)
 .gnu.attributes
                0x00000000000004b0       0x10 c:/program files/microchip/xc32/v4.60/bin/bin/../../lib/gcc/pic32mx/8.3.1/../../../../pic32mx/lib\libpic32.a(vector38.o)
 .gnu.attributes
                0x00000000000004c0       0x10 c:/program files/microchip/xc32/v4.60/bin/bin/../../lib/gcc/pic32mx/8.3.1/../../../../pic32mx/lib\libpic32.a(vector39.o)
 .gnu.attributes
                0x00000000000004d0       0x10 c:/program files/microchip/xc32/v4.60/bin/bin/../../lib/gcc/pic32mx/8.3.1/../../../../pic32mx/lib\libpic32.a(vector40.o)
 .gnu.attributes
                0x00000000000004e0       0x10 c:/program files/microchip/xc32/v4.60/bin/bin/../../lib/gcc/pic32mx/8.3.1/../../../../pic32mx/lib\libpic32.a(vector41.o)
 .gnu.attributes
                0x00000000000004f0       0x10 c:/program files/microchip/xc32/v4.60/bin/bin/../../lib/gcc/pic32mx/8.3.1/../../../../pic32mx/lib\libpic32.a(vector42.o)
 .gnu.attributes
                0x0000000000000500       0x10 c:/program files/microchip/xc32/v4.60/bin/bin/../../lib/gcc/pic32mx/8.3.1/../../../../pic32mx/lib\libpic32.a(vector43.o)
 .gnu.attributes
                0x0000000000000510       0x10 c:/program files/microchip/xc32/v4.60/bin/bin/../../lib/gcc/pic32mx/8.3.1/../../../../pic32mx/lib\libpic32.a(defaultinterrupt.o)
 .gnu.attributes
                0x0000000000000520       0x10 c:/program files/microchip/xc32/v4.60/bin/bin/../../lib/gcc/pic32mx/8.3.1/../../../../pic32mx/lib\libc-size-musl.a(memcmp.o)
 .gnu.attributes
                0x0000000000000530       0x10 c:/program files/microchip/xc32/v4.60/bin/bin/../../lib/gcc/pic32mx/8.3.1/../../../../pic32mx/lib\libc-size-musl.a(memcpy.o)
 .gnu.attributes
                0x0000000000000540       0x10 c:/program files/microchip/xc32/v4.60/bin/bin/../../lib/gcc/pic32mx/8.3.1/../../../../pic32mx/lib\libc-size-musl.a(memset.o)
 .gnu.attributes
                0x0000000000000550       0x10 c:/program files/microchip/xc32/v4.60/bin/bin/../../lib/gcc/pic32mx/8.3.1/../../../../pic32mx/lib\libpic32.a(pic32_data_init_clear.o)
 .gnu.attributes
                0x0000000000000560       0x10 c:/program files/microchip/xc32/v4.60/bin/bin/../../lib/gcc/pic32mx/8.3.1/../../../../pic32mx/lib\libpic32.a(pic32_data_init_copy.o)
                0x0000000000000200                _min_heap_size = 0x200
LOAD C:\Users\aryll\AppData\Local\Temp\ccKXWNGz.o
LOAD C:\Users\aryll\AppData\Local\Temp\ccvbz1Nu.o
LOAD C:\Users\aryll\AppData\Local\Temp\cci6AvUz.o
LOAD c:/program files/microchip/xc32/v4.60/bin/bin/../../lib/gcc/pic32mx/8.3.1/../../../../pic32mx/lib\pic32_software_reset.o
LOAD c:/program files/microchip/xc32/v4.60/bin/bin/../../lib/gcc/pic32mx/8.3.1\libgcc.a
START GROUP
LOAD c:/program files/microchip/xc32/v4.60/bin/bin/../../lib/gcc/pic32mx/8.3.1/../../../../pic32mx/lib\libpic32.a
LOAD c:/program files/microchip/xc32/v4.60/bin/bin/../../lib/gcc/pic32mx/8.3.1/../../../../pic32mx/lib\libc-size-musl.a
LOAD c:/program files/microchip/xc32/v4.60/bin/bin/../../lib/gcc/pic32mx/8.3.1/../../../../pic32mx/lib\liblmalloc-musl.a
LOAD c:/program files/microchip/xc32/v4.60/bin/bin/../../lib/gcc/pic32mx/8.3.1/../../../../pic32mx/lib\libdebug.a
LOAD c:/program files/microchip/xc32/v4.60/bin/bin/../../lib/gcc/pic32mx/8.3.1/../../../../pic32mx/lib\libc-musl.a
LOAD c:/program files/microchip/xc32/v4.60/bin/bin/../../lib/gcc/pic32mx/8.3.1/../../../../pic32mx/lib\libm.a
LOAD c:/program files/microchip/xc32/v4.60/bin/bin/../../lib/gcc/pic32mx/8.3.1/../../../../pic32mx/lib\libe.a
LOAD c:/program files/microchip/xc32/v4.60/bin/bin/../../lib/gcc/pic32mx/8.3.1/../../../../pic32mx/lib\libm-musl.a
LOAD c:/program files/microchip/xc32/v4.60/bin/bin/../../lib/gcc/pic32mx/8.3.1/../../../../pic32mx/lib\libdsp.a
END GROUP
LOAD c:/program files/microchip/xc32/v4.60/bin/bin/../../lib/gcc/pic32mx/8.3.1\libgcc.a
OUTPUT(dist/default/production/Mouse.X.production.elf elf32-tradlittlemips)
LOAD data_init
LOAD stack

.reginfo        0x0000000000000000       0x18
 .reginfo       0x0000000000000000       0x18 c:/program files/microchip/xc32/v4.60/bin/bin/../../lib/gcc/pic32mx/8.3.1/../../../../pic32mx/lib\debug-exception-return.o

.stack          0x00000000a0007be8      0x400
 .stack         0x00000000a0007be8      0x400 stack

.data.gDrvUSBFSDeviceInterface
                0x00000000a0000078       0x50
 .data.gDrvUSBFSDeviceInterface
                0x00000000a0000078       0x50 build/default/production/_ext/2128569739/drv_usbfs_device.o
                0x00000000a0000078                gDrvUSBFSDeviceInterface

.data.uxTopUsedPriority
                0x00000000a00000c8        0x4
 .data.uxTopUsedPriority
                0x00000000a00000c8        0x4 build/default/production/_ext/404212886/FreeRTOS_tasks.o

.bss.ucHeap     0x00000000a00000cc     0x6d60
 .bss.ucHeap    0x00000000a00000cc     0x6d60 build/default/production/_ext/1665200909/heap_1.o

.bss.xISRStack  0x00000000a0006e30      0x800
 .bss.xISRStack
                0x00000000a0006e30      0x800 build/default/production/_ext/951553248/port.o
                0x00000000a0006e30                xISRStack

.bss.pxReadyTasksLists
                0x00000000a0007630       0x64
 .bss.pxReadyTasksLists
                0x00000000a0007630       0x64 build/default/production/_ext/404212886/FreeRTOS_tasks.o

.bss.endPointTable1
                0x00000000a0007800       0x60
 .bss.endPointTable1
                0x00000000a0007800       0x60 build/default/production/_ext/1171490990/initialization.o

.bss.usbDeviceInstance
                0x00000000a0007694      0x100
 .bss.usbDeviceInstance
                0x00000000a0007694      0x100 build/default/production/_ext/308758920/usb_device.o

.bss.gDrvUSBGroup
                0x00000000a0007860       0xc8
 .bss.gDrvUSBGroup
                0x00000000a0007860       0xc8 build/default/production/_ext/2128569739/drv_usbfs.o

.bss.gUSBDeviceHIDIRP
                0x00000000a0007794       0x48
 .bss.gUSBDeviceHIDIRP
                0x00000000a0007794       0x48 build/default/production/_ext/308758920/usb_device_hid.o

.bss.appData    0x00000000a0007928       0x2c
 .bss.appData   0x00000000a0007928       0x2c build/default/production/_ext/1360937237/app.o
                0x00000000a0007928                appData

.bss.gUsbDeviceHidInstance
                0x00000000a0007954       0x28
 .bss.gUsbDeviceHidInstance
                0x00000000a0007954       0x28 build/default/production/_ext/308758920/usb_device_hid.o

.bss.xSuspendedTaskList
                0x00000000a00077dc       0x14
 .bss.xSuspendedTaskList
                0x00000000a00077dc       0x14 build/default/production/_ext/404212886/FreeRTOS_tasks.o

.bss.xTasksWaitingTermination
                0x00000000a000797c       0x14
 .bss.xTasksWaitingTermination
                0x00000000a000797c       0x14 build/default/production/_ext/404212886/FreeRTOS_tasks.o

.bss.xPendingReadyList
                0x00000000a0007990       0x14
 .bss.xPendingReadyList
                0x00000000a0007990       0x14 build/default/production/_ext/404212886/FreeRTOS_tasks.o

.bss.xDelayedTaskList2
                0x00000000a00079a4       0x14
 .bss.xDelayedTaskList2
                0x00000000a00079a4       0x14 build/default/production/_ext/404212886/FreeRTOS_tasks.o

.bss.xDelayedTaskList1
                0x00000000a00079b8       0x14
 .bss.xDelayedTaskList1
                0x00000000a00079b8       0x14 build/default/production/_ext/404212886/FreeRTOS_tasks.o

._debug_exception
                0x00000000bfc00480       0x2c
 ._debug_exception
                0x00000000bfc00480       0x2c c:/program files/microchip/xc32/v4.60/bin/bin/../../lib/gcc/pic32mx/8.3.1/../../../../pic32mx/lib\debug-exception-return.o
                0x00000000bfc00480                __DbgExecReturn

.config_BFC00BF0.__config_BFC00BF0
                0x00000000bfc00bf0        0x4
 .config_BFC00BF0.__config_BFC00BF0
                0x00000000bfc00bf0        0x4 build/default/production/_ext/1171490990/initialization.o
                0x00000000bfc00bf0                __config_BFC00BF0

.config_BFC00BF4.__config_BFC00BF4
                0x00000000bfc00bf4        0x4
 .config_BFC00BF4.__config_BFC00BF4
                0x00000000bfc00bf4        0x4 build/default/production/_ext/1171490990/initialization.o
                0x00000000bfc00bf4                __config_BFC00BF4

.config_BFC00BF8.__config_BFC00BF8
                0x00000000bfc00bf8        0x4
 .config_BFC00BF8.__config_BFC00BF8
                0x00000000bfc00bf8        0x4 build/default/production/_ext/1171490990/initialization.o
                0x00000000bfc00bf8                __config_BFC00BF8

.config_BFC00BFC.__config_BFC00BFC
                0x00000000bfc00bfc        0x4
 .config_BFC00BFC.__config_BFC00BFC
                0x00000000bfc00bfc        0x4 build/default/production/_ext/1171490990/initialization.o
                0x00000000bfc00bfc                __config_BFC00BFC

.text.F_DRV_USBFS_DEVICE_Tasks_ISR
                0x000000009d000000      0x654
 .text.F_DRV_USBFS_DEVICE_Tasks_ISR
                0x000000009d000000      0x654 build/default/production/_ext/2128569739/drv_usbfs_device.o
                0x000000009d000000                F_DRV_USBFS_DEVICE_Tasks_ISR

.text.F_USB_DEVICE_HID_ControlTransferHandler
                0x000000009d000654      0x4bc
 .text.F_USB_DEVICE_HID_ControlTransferHandler
                0x000000009d000654      0x4bc build/default/production/_ext/308758920/usb_device_hid.o
                0x000000009d000654                F_USB_DEVICE_HID_ControlTransferHandler

.text           0x000000009d000b10      0x454
 .text          0x000000009d000b10      0x454 build/default/production/_ext/951553248/port_asm.o
                0x000000009d000b10                vPortTickInterruptHandler
                0x000000009d000cbc                vPortStartFirstTask
                0x000000009d000d84                vPortYieldISR

.text.xTaskCreate
                0x000000009d000f64      0x308
 .text.xTaskCreate
                0x000000009d000f64      0x308 build/default/production/_ext/404212886/FreeRTOS_tasks.o
                0x000000009d000f64                xTaskCreate

.text.APP_Tasks
                0x000000009d00126c      0x2c4
 .text.APP_Tasks
                0x000000009d00126c      0x2c4 build/default/production/_ext/1360937237/app.o
                0x000000009d00126c                APP_Tasks

.text.F_USB_DEVICE_EventHandler
                0x000000009d001530      0x230
 .text.F_USB_DEVICE_EventHandler
                0x000000009d001530      0x230 build/default/production/_ext/308758920/usb_device.o
                0x000000009d001530                F_USB_DEVICE_EventHandler

.text.xQueueSemaphoreTake
                0x000000009d001760      0x228
 .text.xQueueSemaphoreTake
                0x000000009d001760      0x228 build/default/production/_ext/404212886/queue.o
                0x000000009d001760                xQueueSemaphoreTake

.text.F_USB_DEVICE_ProcessStandardDeviceSetRequests
                0x000000009d001988      0x214
 .text.F_USB_DEVICE_ProcessStandardDeviceSetRequests
                0x000000009d001988      0x214 build/default/production/_ext/308758920/usb_device.o
                0x000000009d001988                F_USB_DEVICE_ProcessStandardDeviceSetRequests

.text.xTaskIncrementTick
                0x000000009d001b9c      0x20c
 .text.xTaskIncrementTick
                0x000000009d001b9c      0x20c build/default/production/_ext/404212886/FreeRTOS_tasks.o
                0x000000009d001b9c                xTaskIncrementTick

.text.DRV_USBFS_DEVICE_IRPSubmit
                0x000000009d001da8      0x208
 .text.DRV_USBFS_DEVICE_IRPSubmit
                0x000000009d001da8      0x208 build/default/production/_ext/2128569739/drv_usbfs_device.o
                0x000000009d001da8                DRV_USBFS_DEVICE_IRPSubmit

.text.F_USB_DEVICE_ProcessStandardDeviceGetRequests
                0x000000009d001fb0      0x200
 .text.F_USB_DEVICE_ProcessStandardDeviceGetRequests
                0x000000009d001fb0      0x200 build/default/production/_ext/308758920/usb_device.o
                0x000000009d001fb0                F_USB_DEVICE_ProcessStandardDeviceGetRequests

.text.F_USB_DEVICE_ControlTransferHandler
                0x000000009d0021b0      0x1f4
 .text.F_USB_DEVICE_ControlTransferHandler
                0x000000009d0021b0      0x1f4 build/default/production/_ext/308758920/usb_device.o
                0x000000009d0021b0                F_USB_DEVICE_ControlTransferHandler

.text.xQueueGenericSend
                0x000000009d0023a4      0x1f0
 .text.xQueueGenericSend
                0x000000009d0023a4      0x1f0 build/default/production/_ext/404212886/queue.o
                0x000000009d0023a4                xQueueGenericSend

.text.xTaskResumeAll
                0x000000009d002594      0x1e0
 .text.xTaskResumeAll
                0x000000009d002594      0x1e0 build/default/production/_ext/404212886/FreeRTOS_tasks.o
                0x000000009d002594                xTaskResumeAll

.USB_1_Handler_vector_text
                0x000000009d002774      0x1b4
 .USB_1_Handler_vector_text
                0x000000009d002774      0x1b4 build/default/production/_ext/1171490990/interrupts_a.o

.dinit          0x000000009d002928      0x1b0
 .dinit         0x000000009d002928      0x1b0 data_init

.text.DRV_USBFS_DEVICE_EndpointStallClear
                0x000000009d002ad8      0x1a4
 .text.DRV_USBFS_DEVICE_EndpointStallClear
                0x000000009d002ad8      0x1a4 build/default/production/_ext/2128569739/drv_usbfs_device.o
                0x000000009d002ad8                DRV_USBFS_DEVICE_EndpointStallClear

.text.USB_DEVICE_HID_ReportSend
                0x000000009d002c7c      0x1a0
 .text.USB_DEVICE_HID_ReportSend
                0x000000009d002c7c      0x1a0 build/default/production/_ext/308758920/usb_device_hid.o
                0x000000009d002c7c                USB_DEVICE_HID_ReportSend

.text.DRV_USBFS_DEVICE_EndpointEnable
                0x000000009d002e1c      0x198
 .text.DRV_USBFS_DEVICE_EndpointEnable
                0x000000009d002e1c      0x198 build/default/production/_ext/2128569739/drv_usbfs_device.o
                0x000000009d002e1c                DRV_USBFS_DEVICE_EndpointEnable

.text.DRV_USBFS_DEVICE_EndpointStall
                0x000000009d002fb4      0x194
 .text.DRV_USBFS_DEVICE_EndpointStall
                0x000000009d002fb4      0x194 build/default/production/_ext/2128569739/drv_usbfs_device.o
                0x000000009d002fb4                DRV_USBFS_DEVICE_EndpointStall

.text.F_USB_DEVICE_Ep0ReceiveCompleteCallback
                0x000000009d003148      0x180
 .text.F_USB_DEVICE_Ep0ReceiveCompleteCallback
                0x000000009d003148      0x180 build/default/production/_ext/308758920/usb_device.o
                0x000000009d003148                F_USB_DEVICE_Ep0ReceiveCompleteCallback

.text.DRV_USBFS_Initialize
                0x000000009d0032c8      0x16c
 .text.DRV_USBFS_Initialize
                0x000000009d0032c8      0x16c build/default/production/_ext/2128569739/drv_usbfs.o
                0x000000009d0032c8                DRV_USBFS_Initialize

.text.xTaskPriorityInherit
                0x000000009d003434      0x160
 .text.xTaskPriorityInherit
                0x000000009d003434      0x160 build/default/production/_ext/404212886/FreeRTOS_tasks.o
                0x000000009d003434                xTaskPriorityInherit

.text.F_USB_DEVICE_HID_InitializeByDescriptorType
                0x000000009d003594      0x15c
 .text.F_USB_DEVICE_HID_InitializeByDescriptorType
                0x000000009d003594      0x15c build/default/production/_ext/308758920/usb_device_hid.o
                0x000000009d003594                F_USB_DEVICE_HID_InitializeByDescriptorType

.text.xTaskRemoveFromEventList
                0x000000009d0036f0      0x158
 .text.xTaskRemoveFromEventList
                0x000000009d0036f0      0x158 build/default/production/_ext/404212886/FreeRTOS_tasks.o
                0x000000009d0036f0                xTaskRemoveFromEventList

.text.DRV_USBFS_DEVICE_IRPCancelAll
                0x000000009d003848      0x140
 .text.DRV_USBFS_DEVICE_IRPCancelAll
                0x000000009d003848      0x140 build/default/production/_ext/2128569739/drv_usbfs_device.o
                0x000000009d003848                DRV_USBFS_DEVICE_IRPCancelAll

.text.USB_DEVICE_Initialize
                0x000000009d003988      0x13c
 .text.USB_DEVICE_Initialize
                0x000000009d003988      0x13c build/default/production/_ext/308758920/usb_device.o
                0x000000009d003988                USB_DEVICE_Initialize

.text.vTaskPriorityDisinheritAfterTimeout
                0x000000009d003ac4      0x138
 .text.vTaskPriorityDisinheritAfterTimeout
                0x000000009d003ac4      0x138 build/default/production/_ext/404212886/FreeRTOS_tasks.o
                0x000000009d003ac4                vTaskPriorityDisinheritAfterTimeout

.text.USB_DEVICE_Tasks
                0x000000009d003bfc      0x134
 .text.USB_DEVICE_Tasks
                0x000000009d003bfc      0x134 build/default/production/_ext/308758920/usb_device.o
                0x000000009d003bfc                USB_DEVICE_Tasks

.text.prvAddCurrentTaskToDelayedList
                0x000000009d003d30      0x134
 .text.prvAddCurrentTaskToDelayedList
                0x000000009d003d30      0x134 build/default/production/_ext/404212886/FreeRTOS_tasks.o

.text.DRV_USBFS_DEVICE_EndpointDisable
                0x000000009d003e64      0x124
 .text.DRV_USBFS_DEVICE_EndpointDisable
                0x000000009d003e64      0x124 build/default/production/_ext/2128569739/drv_usbfs_device.o
                0x000000009d003e64                DRV_USBFS_DEVICE_EndpointDisable

.text.vTaskSwitchContext
                0x000000009d003f88      0x124
 .text.vTaskSwitchContext
                0x000000009d003f88      0x124 build/default/production/_ext/404212886/FreeRTOS_tasks.o
                0x000000009d003f88                vTaskSwitchContext

.text.APP_USBDeviceEventHandler
                0x000000009d0040ac      0x11c
 .text.APP_USBDeviceEventHandler
                0x000000009d0040ac      0x11c build/default/production/_ext/1360937237/app.o
                0x000000009d0040ac                APP_USBDeviceEventHandler

.text.DRV_USBFS_DEVICE_IRPCancel
                0x000000009d0041c8      0x114
 .text.DRV_USBFS_DEVICE_IRPCancel
                0x000000009d0041c8      0x114 build/default/production/_ext/2128569739/drv_usbfs_device.o
                0x000000009d0041c8                DRV_USBFS_DEVICE_IRPCancel

.text.xTaskPriorityDisinherit
                0x000000009d0042dc      0x10c
 .text.xTaskPriorityDisinherit
                0x000000009d0042dc      0x10c build/default/production/_ext/404212886/FreeRTOS_tasks.o
                0x000000009d0042dc                xTaskPriorityDisinherit

.text.prvUnlockQueue
                0x000000009d0043e8      0x104
 .text.prvUnlockQueue
                0x000000009d0043e8      0x104 build/default/production/_ext/404212886/queue.o

.text.F_USB_DEVICE_ProcessStandardEndpointRequest
                0x000000009d0044ec      0x100
 .text.F_USB_DEVICE_ProcessStandardEndpointRequest
                0x000000009d0044ec      0x100 build/default/production/_ext/308758920/usb_device.o
                0x000000009d0044ec                F_USB_DEVICE_ProcessStandardEndpointRequest

.text.prvCopyDataToQueue
                0x000000009d0045ec       0xfc
 .text.prvCopyDataToQueue
                0x000000009d0045ec       0xfc build/default/production/_ext/404212886/queue.o

.text.pvPortMalloc
                0x000000009d0046e8       0xf8
 .text.pvPortMalloc
                0x000000009d0046e8       0xf8 build/default/production/_ext/1665200909/heap_1.o
                0x000000009d0046e8                pvPortMalloc

.text.F_USB_DEVICE_ConfigureDevice
                0x000000009d0047e0       0xf4
 .text.F_USB_DEVICE_ConfigureDevice
                0x000000009d0047e0       0xf4 build/default/production/_ext/308758920/usb_device.o
                0x000000009d0047e0                F_USB_DEVICE_ConfigureDevice

.text.xQueueGenericReset
                0x000000009d0048d4       0xf0
 .text.xQueueGenericReset
                0x000000009d0048d4       0xf0 build/default/production/_ext/404212886/queue.o
                0x000000009d0048d4                xQueueGenericReset

.text.F_DRV_USBFS_DEVICE_EndpointBDTEntryArm
                0x000000009d0049c4       0xe4
 .text.F_DRV_USBFS_DEVICE_EndpointBDTEntryArm
                0x000000009d0049c4       0xe4 build/default/production/_ext/2128569739/drv_usbfs_device.o
                0x000000009d0049c4                F_DRV_USBFS_DEVICE_EndpointBDTEntryArm

.text.F_USB_DEVICE_HID_DeInitialize
                0x000000009d004aa8       0xdc
 .text.F_USB_DEVICE_HID_DeInitialize
                0x000000009d004aa8       0xdc build/default/production/_ext/308758920/usb_device_hid.o
                0x000000009d004aa8                F_USB_DEVICE_HID_DeInitialize

.text.APP_USBDeviceHIDEventHandler
                0x000000009d004b84       0xdc
 .text.APP_USBDeviceHIDEventHandler
                0x000000009d004b84       0xdc build/default/production/_ext/1360937237/app.o
                0x000000009d004b84                APP_USBDeviceHIDEventHandler

.text.general_exception
                0x000000009d004c60       0xdc
 .text.general_exception
                0x000000009d004c60       0xdc c:/program files/microchip/xc32/v4.60/bin/bin/../../lib/gcc/pic32mx/8.3.1/../../../../pic32mx/lib\libpic32.a(general-exception.o)
                0x000000009d004c60                _general_exception_context

.text.F_USB_DEVICE_GetStringDescriptorRequestProcess
                0x000000009d004d3c       0xd0
 .text.F_USB_DEVICE_GetStringDescriptorRequestProcess
                0x000000009d004d3c       0xd0 build/default/production/_ext/308758920/usb_device.o
                0x000000009d004d3c                F_USB_DEVICE_GetStringDescriptorRequestProcess

.text.F_USB_DEVICE_Ep0TransmitCompleteCallback
                0x000000009d004e0c       0xcc
 .text.F_USB_DEVICE_Ep0TransmitCompleteCallback
                0x000000009d004e0c       0xcc build/default/production/_ext/308758920/usb_device.o
                0x000000009d004e0c                F_USB_DEVICE_Ep0TransmitCompleteCallback

.text.F_USB_DEVICE_HID_ReportSendCallBack
                0x000000009d004ed8       0xcc
 .text.F_USB_DEVICE_HID_ReportSendCallBack
                0x000000009d004ed8       0xcc build/default/production/_ext/308758920/usb_device_hid.o
                0x000000009d004ed8                F_USB_DEVICE_HID_ReportSendCallBack

.text.vTaskStartScheduler
                0x000000009d004fa4       0xb0
 .text.vTaskStartScheduler
                0x000000009d004fa4       0xb0 build/default/production/_ext/404212886/FreeRTOS_tasks.o
                0x000000009d004fa4                vTaskStartScheduler

.text.F_USB_DEVICE_DeInitializeAllFunctionDrivers
                0x000000009d005054       0xac
 .text.F_USB_DEVICE_DeInitializeAllFunctionDrivers
                0x000000009d005054       0xac build/default/production/_ext/308758920/usb_device.o
                0x000000009d005054                F_USB_DEVICE_DeInitializeAllFunctionDrivers

.text.xTaskCheckForTimeOut
                0x000000009d005100       0xac
 .text.xTaskCheckForTimeOut
                0x000000009d005100       0xac build/default/production/_ext/404212886/FreeRTOS_tasks.o
                0x000000009d005100                xTaskCheckForTimeOut

.text.F_USB_DEVICE_ForwardControlXfrToFunction
                0x000000009d0051ac       0xa0
 .text.F_USB_DEVICE_ForwardControlXfrToFunction
                0x000000009d0051ac       0xa0 build/default/production/_ext/308758920/usb_device.o
                0x000000009d0051ac                F_USB_DEVICE_ForwardControlXfrToFunction

.text.DRV_USBFS_Tasks_ISR
                0x000000009d00524c       0x94
 .text.DRV_USBFS_Tasks_ISR
                0x000000009d00524c       0x94 build/default/production/_ext/2128569739/drv_usbfs.o
                0x000000009d00524c                DRV_USBFS_Tasks_ISR

.text.DRV_USBFS_DEVICE_Detach
                0x000000009d0052e0       0x94
 .text.DRV_USBFS_DEVICE_Detach
                0x000000009d0052e0       0x94 build/default/production/_ext/2128569739/drv_usbfs_device.o
                0x000000009d0052e0                DRV_USBFS_DEVICE_Detach

.text.SYS_Initialize
                0x000000009d005374       0x90
 .text.SYS_Initialize
                0x000000009d005374       0x90 build/default/production/_ext/1171490990/initialization.o
                0x000000009d005374                SYS_Initialize

.text.xQueueGenericCreate
                0x000000009d005404       0x88
 .text.xQueueGenericCreate
                0x000000009d005404       0x88 build/default/production/_ext/404212886/queue.o
                0x000000009d005404                xQueueGenericCreate

.text.prvCheckTasksWaitingTermination
                0x000000009d00548c       0x88
 .text.prvCheckTasksWaitingTermination
                0x000000009d00548c       0x88 build/default/production/_ext/404212886/FreeRTOS_tasks.o

.text.USB_DEVICE_ControlSend
                0x000000009d005514       0x84
 .text.USB_DEVICE_ControlSend
                0x000000009d005514       0x84 build/default/production/_ext/308758920/usb_device.o
                0x000000009d005514                USB_DEVICE_ControlSend

.text.F_USB_DEVICE_GetFunctionDriverEntryByInterface
                0x000000009d005598       0x80
 .text.F_USB_DEVICE_GetFunctionDriverEntryByInterface
                0x000000009d005598       0x80 build/default/production/_ext/308758920/usb_device.o
                0x000000009d005598                F_USB_DEVICE_GetFunctionDriverEntryByInterface

.text.F_USB_DEVICE_FindEndpoint
                0x000000009d005618       0x7c
 .text.F_USB_DEVICE_FindEndpoint
                0x000000009d005618       0x7c build/default/production/_ext/308758920/usb_device.o
                0x000000009d005618                F_USB_DEVICE_FindEndpoint

.text.USB_DEVICE_ControlStatus
                0x000000009d005694       0x7c
 .text.USB_DEVICE_ControlStatus
                0x000000009d005694       0x7c build/default/production/_ext/308758920/usb_device.o
                0x000000009d005694                USB_DEVICE_ControlStatus

.text           0x000000009d005710       0x7c
 .text          0x000000009d005710       0x7c c:/program files/microchip/xc32/v4.60/bin/bin/../../lib/gcc/pic32mx/8.3.1/../../../../pic32mx/lib\libpic32.a(pic32_data_init_core.o)
                0x000000009d005710                __dinit_copy_emb
                0x000000009d005710                __dinit_decompress
                0x000000009d005710                __dinit_copy_val_data
                0x000000009d005718                __pic32_data_init

.text.F_DRV_USBFS_DEVICE_IRPQueueFlush
                0x000000009d00578c       0x74
 .text.F_DRV_USBFS_DEVICE_IRPQueueFlush
                0x000000009d00578c       0x74 build/default/production/_ext/2128569739/drv_usbfs_device.o
                0x000000009d00578c                F_DRV_USBFS_DEVICE_IRPQueueFlush

.text.SYS_Tasks
                0x000000009d005800       0x74
 .text.SYS_Tasks
                0x000000009d005800       0x74 build/default/production/_ext/1171490990/tasks.o
                0x000000009d005800                SYS_Tasks

.text.DRV_USBFS_DEVICE_Attach
                0x000000009d005874       0x70
 .text.DRV_USBFS_DEVICE_Attach
                0x000000009d005874       0x70 build/default/production/_ext/2128569739/drv_usbfs_device.o
                0x000000009d005874                DRV_USBFS_DEVICE_Attach

.text.vApplicationSetupTickTimerInterrupt
                0x000000009d0058e4       0x6c
 .text.vApplicationSetupTickTimerInterrupt
                0x000000009d0058e4       0x6c build/default/production/_ext/951553248/port.o
                0x000000009d0058e4                vApplicationSetupTickTimerInterrupt

.text.DRV_USBFS_ClientEventCallBackSet
                0x000000009d005950       0x68
 .text.DRV_USBFS_ClientEventCallBackSet
                0x000000009d005950       0x68 build/default/production/_ext/2128569739/drv_usbfs.o
                0x000000009d005950                DRV_USBFS_ClientEventCallBackSet

.text.APP_Initialize
                0x000000009d0059b8       0x64
 .text.APP_Initialize
                0x000000009d0059b8       0x64 build/default/production/_ext/1360937237/app.o
                0x000000009d0059b8                APP_Initialize

.text.vTaskExitCritical
                0x000000009d005a1c       0x60
 .text.vTaskExitCritical
                0x000000009d005a1c       0x60 build/default/production/_ext/404212886/FreeRTOS_tasks.o
                0x000000009d005a1c                vTaskExitCritical

.text.CLK_Initialize
                0x000000009d005a7c       0x5c
 .text.CLK_Initialize
                0x000000009d005a7c       0x5c build/default/production/_ext/60165520/plib_clk.o
                0x000000009d005a7c                CLK_Initialize

.text.xPortStartScheduler
                0x000000009d005ad8       0x5c
 .text.xPortStartScheduler
                0x000000009d005ad8       0x5c build/default/production/_ext/951553248/port.o
                0x000000009d005ad8                xPortStartScheduler

.text.SYS_INT_SourceDisable
                0x000000009d005b34       0x58
 .text.SYS_INT_SourceDisable
                0x000000009d005b34       0x58 build/default/production/_ext/1881668453/sys_int.o
                0x000000009d005b34                SYS_INT_SourceDisable

.text.USB_DEVICE_EndpointEnable
                0x000000009d005b8c       0x58
 .text.USB_DEVICE_EndpointEnable
                0x000000009d005b8c       0x58 build/default/production/_ext/308758920/usb_device.o
                0x000000009d005b8c                USB_DEVICE_EndpointEnable

.text.USB_DEVICE_EventHandlerSet
                0x000000009d005be4       0x58
 .text.USB_DEVICE_EventHandlerSet
                0x000000009d005be4       0x58 build/default/production/_ext/308758920/usb_device.o
                0x000000009d005be4                USB_DEVICE_EventHandlerSet

.text.xQueueCreateMutex
                0x000000009d005c3c       0x58
 .text.xQueueCreateMutex
                0x000000009d005c3c       0x58 build/default/production/_ext/404212886/queue.o
                0x000000009d005c3c                xQueueCreateMutex

.text.vListInsert
                0x000000009d005c94       0x58
 .text.vListInsert
                0x000000009d005c94       0x58 build/default/production/_ext/404212886/list.o
                0x000000009d005c94                vListInsert

.text.DRV_USBFS_DEVICE_EndpointIsEnabled
                0x000000009d005cec       0x54
 .text.DRV_USBFS_DEVICE_EndpointIsEnabled
                0x000000009d005cec       0x54 build/default/production/_ext/2128569739/drv_usbfs_device.o
                0x000000009d005cec                DRV_USBFS_DEVICE_EndpointIsEnabled

.text.DRV_USBFS_DEVICE_EndpointIsStalled
                0x000000009d005d40       0x54
 .text.DRV_USBFS_DEVICE_EndpointIsStalled
                0x000000009d005d40       0x54 build/default/production/_ext/2128569739/drv_usbfs_device.o
                0x000000009d005d40                DRV_USBFS_DEVICE_EndpointIsStalled

.text.F_USB_DEVICE_RedirectControlXfrToClient
                0x000000009d005d94       0x54
 .text.F_USB_DEVICE_RedirectControlXfrToClient
                0x000000009d005d94       0x54 build/default/production/_ext/308758920/usb_device.o
                0x000000009d005d94                F_USB_DEVICE_RedirectControlXfrToClient

.text.USB_DEVICE_IRPSubmit
                0x000000009d005de8       0x54
 .text.USB_DEVICE_IRPSubmit
                0x000000009d005de8       0x54 build/default/production/_ext/308758920/usb_device.o
                0x000000009d005de8                USB_DEVICE_IRPSubmit

.text.pxPortInitialiseStack
                0x000000009d005e3c       0x54
 .text.pxPortInitialiseStack
                0x000000009d005e3c       0x54 build/default/production/_ext/951553248/port.o
                0x000000009d005e3c                pxPortInitialiseStack

.text.vPortIncrementTick
                0x000000009d005e90       0x54
 .text.vPortIncrementTick
                0x000000009d005e90       0x54 build/default/production/_ext/951553248/port.o
                0x000000009d005e90                vPortIncrementTick

.text.vTaskDelay
                0x000000009d005ee4       0x54
 .text.vTaskDelay
                0x000000009d005ee4       0x54 build/default/production/_ext/404212886/FreeRTOS_tasks.o
                0x000000009d005ee4                vTaskDelay

.text.main_entry
                0x000000009d005f38       0x54
 .text.main_entry
                0x000000009d005f38       0x54 C:\Users\aryll\AppData\Local\Temp\ccKXWNGz.o
                0x000000009d005f6c                __crt0_exit

.text.USB_DEVICE_Detach
                0x000000009d005f8c       0x50
 .text.USB_DEVICE_Detach
                0x000000009d005f8c       0x50 build/default/production/_ext/308758920/usb_device.o
                0x000000009d005f8c                USB_DEVICE_Detach

.text.blink     0x000000009d005fdc       0x50
 .text.blink    0x000000009d005fdc       0x50 build/default/production/_ext/1360937237/app.o
                0x000000009d005fdc                blink

.text.OSAL_MUTEX_Create
                0x000000009d00602c       0x4c
 .text.OSAL_MUTEX_Create
                0x000000009d00602c       0x4c build/default/production/_ext/1529399856/osal_freertos.o
                0x000000009d00602c                OSAL_MUTEX_Create

.text.USB_DEVICE_Open
                0x000000009d006078       0x4c
 .text.USB_DEVICE_Open
                0x000000009d006078       0x4c build/default/production/_ext/308758920/usb_device.o
                0x000000009d006078                USB_DEVICE_Open

.text.OSAL_CRIT_Enter
                0x000000009d0060c4       0x48
 .text.OSAL_CRIT_Enter
                0x000000009d0060c4       0x48 build/default/production/_ext/1529399856/osal_freertos.o
                0x000000009d0060c4                OSAL_CRIT_Enter

.text.USB_DEVICE_Attach
                0x000000009d00610c       0x48
 .text.USB_DEVICE_Attach
                0x000000009d00610c       0x48 build/default/production/_ext/308758920/usb_device.o
                0x000000009d00610c                USB_DEVICE_Attach

.text.vTaskEnterCritical
                0x000000009d006154       0x48
 .text.vTaskEnterCritical
                0x000000009d006154       0x48 build/default/production/_ext/404212886/FreeRTOS_tasks.o
                0x000000009d006154                vTaskEnterCritical

.vector_default
                0x000000009d00619c       0x48
 .vector_default
                0x000000009d00619c       0x48 c:/program files/microchip/xc32/v4.60/bin/bin/../../lib/gcc/pic32mx/8.3.1/../../../../pic32mx/lib\libpic32.a(defaultinterrupt.o)
                0x000000009d00619c                _DefaultInterrupt

.text.DRV_USBFS_Open
                0x000000009d0061e4       0x44
 .text.DRV_USBFS_Open
                0x000000009d0061e4       0x44 build/default/production/_ext/2128569739/drv_usbfs.o
                0x000000009d0061e4                DRV_USBFS_Open

.text.OSAL_CRIT_Leave
                0x000000009d006228       0x44
 .text.OSAL_CRIT_Leave
                0x000000009d006228       0x44 build/default/production/_ext/1529399856/osal_freertos.o
                0x000000009d006228                OSAL_CRIT_Leave

.text.OSAL_MUTEX_Unlock
                0x000000009d00626c       0x44
 .text.OSAL_MUTEX_Unlock
                0x000000009d00626c       0x44 build/default/production/_ext/1529399856/osal_freertos.o
                0x000000009d00626c                OSAL_MUTEX_Unlock

.text.USB_DEVICE_EndpointDisable
                0x000000009d0062b0       0x44
 .text.USB_DEVICE_EndpointDisable
                0x000000009d0062b0       0x44 build/default/production/_ext/308758920/usb_device.o
                0x000000009d0062b0                USB_DEVICE_EndpointDisable

.text.USB_DEVICE_IRPCancelAll
                0x000000009d0062f4       0x44
 .text.USB_DEVICE_IRPCancelAll
                0x000000009d0062f4       0x44 build/default/production/_ext/308758920/usb_device.o
                0x000000009d0062f4                USB_DEVICE_IRPCancelAll

.text           0x000000009d006338       0x44
 .text          0x000000009d006338       0x44 c:/program files/microchip/xc32/v4.60/bin/bin/../../lib/gcc/pic32mx/8.3.1/../../../../pic32mx/lib\pic32_software_reset.o
                0x000000009d006338                __pic32_software_reset

.text.OSAL_MUTEX_Lock
                0x000000009d00637c       0x40
 .text.OSAL_MUTEX_Lock
                0x000000009d00637c       0x40 build/default/production/_ext/1529399856/osal_freertos.o
                0x000000009d00637c                OSAL_MUTEX_Lock

.text.uxListRemove
                0x000000009d0063bc       0x40
 .text.uxListRemove
                0x000000009d0063bc       0x40 build/default/production/_ext/404212886/list.o
                0x000000009d0063bc                uxListRemove

.text.prvIdleTask
                0x000000009d0063fc       0x40
 .text.prvIdleTask
                0x000000009d0063fc       0x40 build/default/production/_ext/404212886/FreeRTOS_tasks.o

.text.F_USB_DEVICE_HID_GlobalInitialize
                0x000000009d00643c       0x38
 .text.F_USB_DEVICE_HID_GlobalInitialize
                0x000000009d00643c       0x38 build/default/production/_ext/308758920/usb_device_hid.o
                0x000000009d00643c                F_USB_DEVICE_HID_GlobalInitialize

.text.uxPortSetInterruptMaskFromISR
                0x000000009d006474       0x38
 .text.uxPortSetInterruptMaskFromISR
                0x000000009d006474       0x38 build/default/production/_ext/951553248/port.o
                0x000000009d006474                uxPortSetInterruptMaskFromISR

.text.vTaskPlaceOnEventList
                0x000000009d0064ac       0x38
 .text.vTaskPlaceOnEventList
                0x000000009d0064ac       0x38 build/default/production/_ext/404212886/FreeRTOS_tasks.o
                0x000000009d0064ac                vTaskPlaceOnEventList

.text.memcmp    0x000000009d0064e4       0x38
 .text.memcmp   0x000000009d0064e4       0x38 c:/program files/microchip/xc32/v4.60/bin/bin/../../lib/gcc/pic32mx/8.3.1/../../../../pic32mx/lib\libc-size-musl.a(memcmp.o)
                0x000000009d0064e4                memcmp

.rodata.usbDevInitData
                0x000000009d00651c       0x34
 .rodata.usbDevInitData
                0x000000009d00651c       0x34 build/default/production/_ext/1171490990/usb_device_init_data.o
                0x000000009d00651c                usbDevInitData

.rodata.hid_rpt0
                0x000000009d006550       0x34
 .rodata.hid_rpt0
                0x000000009d006550       0x34 build/default/production/_ext/1171490990/usb_device_init_data.o

.text.prvIsQueueEmpty
                0x000000009d006584       0x34
 .text.prvIsQueueEmpty
                0x000000009d006584       0x34 build/default/production/_ext/404212886/queue.o

.text.prvResetNextTaskUnblockTime
                0x000000009d0065b8       0x34
 .text.prvResetNextTaskUnblockTime
                0x000000009d0065b8       0x34 build/default/production/_ext/404212886/FreeRTOS_tasks.o

.text.DRV_USBFS_DEVICE_SOFNumberGet
                0x000000009d0065ec       0x30
 .text.DRV_USBFS_DEVICE_SOFNumberGet
                0x000000009d0065ec       0x30 build/default/production/_ext/2128569739/drv_usbfs_device.o
                0x000000009d0065ec                DRV_USBFS_DEVICE_SOFNumberGet

.text.DRV_USBFS_Close
                0x000000009d00661c       0x2c
 .text.DRV_USBFS_Close
                0x000000009d00661c       0x2c build/default/production/_ext/2128569739/drv_usbfs.o
                0x000000009d00661c                DRV_USBFS_Close

.text.F_DRV_USBFS_DEVICE_Initialize
                0x000000009d006648       0x2c
 .text.F_DRV_USBFS_DEVICE_Initialize
                0x000000009d006648       0x2c build/default/production/_ext/2128569739/drv_usbfs_device.o
                0x000000009d006648                F_DRV_USBFS_DEVICE_Initialize

.text.USB_DEVICE_HID_EventHandlerSet
                0x000000009d006674       0x2c
 .text.USB_DEVICE_HID_EventHandlerSet
                0x000000009d006674       0x2c build/default/production/_ext/308758920/usb_device_hid.o
                0x000000009d006674                USB_DEVICE_HID_EventHandlerSet

.rodata.usbMasterDescriptor
                0x000000009d0066a0       0x2c
 .rodata.usbMasterDescriptor
                0x000000009d0066a0       0x2c build/default/production/_ext/1171490990/usb_device_init_data.o

.rodata.fullSpeedConfigurationDescriptor
                0x000000009d0066cc       0x2c
 .rodata.fullSpeedConfigurationDescriptor
                0x000000009d0066cc       0x2c build/default/production/_ext/1171490990/usb_device_init_data.o

.rodata.drvUSBFSInit
                0x000000009d0066f8       0x2c
 .rodata.drvUSBFSInit
                0x000000009d0066f8       0x2c build/default/production/_ext/1171490990/initialization.o

.text.memcpy    0x000000009d006724       0x2c
 .text.memcpy   0x000000009d006724       0x2c c:/program files/microchip/xc32/v4.60/bin/bin/../../lib/gcc/pic32mx/8.3.1/../../../../pic32mx/lib\libc-size-musl.a(memcpy.o)
                0x000000009d006724                memcpy

.text.DRV_USBFS_DEVICE_AddressSet
                0x000000009d006750       0x28
 .text.DRV_USBFS_DEVICE_AddressSet
                0x000000009d006750       0x28 build/default/production/_ext/2128569739/drv_usbfs_device.o
                0x000000009d006750                DRV_USBFS_DEVICE_AddressSet

.text.DRV_USBFS_DEVICE_RemoteWakeupStart
                0x000000009d006778       0x28
 .text.DRV_USBFS_DEVICE_RemoteWakeupStart
                0x000000009d006778       0x28 build/default/production/_ext/2128569739/drv_usbfs_device.o
                0x000000009d006778                DRV_USBFS_DEVICE_RemoteWakeupStart

.text.DRV_USBFS_DEVICE_RemoteWakeupStop
                0x000000009d0067a0       0x28
 .text.DRV_USBFS_DEVICE_RemoteWakeupStop
                0x000000009d0067a0       0x28 build/default/production/_ext/2128569739/drv_usbfs_device.o
                0x000000009d0067a0                DRV_USBFS_DEVICE_RemoteWakeupStop

.text.EVIC_SourceEnable
                0x000000009d0067c8       0x28
 .text.EVIC_SourceEnable
                0x000000009d0067c8       0x28 build/default/production/_ext/1865200349/plib_evic.o
                0x000000009d0067c8                EVIC_SourceEnable

.text.EVIC_SourceDisable
                0x000000009d0067f0       0x28
 .text.EVIC_SourceDisable
                0x000000009d0067f0       0x28 build/default/production/_ext/1865200349/plib_evic.o
                0x000000009d0067f0                EVIC_SourceDisable

.text.EVIC_SourceStatusClear
                0x000000009d006818       0x28
 .text.EVIC_SourceStatusClear
                0x000000009d006818       0x28 build/default/production/_ext/1865200349/plib_evic.o
                0x000000009d006818                EVIC_SourceStatusClear

.text.EVIC_INT_Restore
                0x000000009d006840       0x28
 .text.EVIC_INT_Restore
                0x000000009d006840       0x28 build/default/production/_ext/1865200349/plib_evic.o
                0x000000009d006840                EVIC_INT_Restore

.text.memset    0x000000009d006868       0x28
 .text.memset   0x000000009d006868       0x28 c:/program files/microchip/xc32/v4.60/bin/bin/../../lib/gcc/pic32mx/8.3.1/../../../../pic32mx/lib\libc-size-musl.a(memset.o)
                0x000000009d006868                memset

.text.EVIC_SourceIsEnabled
                0x000000009d006890       0x24
 .text.EVIC_SourceIsEnabled
                0x000000009d006890       0x24 build/default/production/_ext/1865200349/plib_evic.o
                0x000000009d006890                EVIC_SourceIsEnabled

.text.F_USB_DEVICE_ClientHandleValidate
                0x000000009d0068b4       0x24
 .text.F_USB_DEVICE_ClientHandleValidate
                0x000000009d0068b4       0x24 build/default/production/_ext/308758920/usb_device.o
                0x000000009d0068b4                F_USB_DEVICE_ClientHandleValidate

.text.vApplicationStackOverflowHook
                0x000000009d0068d8       0x24
 .text.vApplicationStackOverflowHook
                0x000000009d0068d8       0x24 build/default/production/_ext/1171490990/freertos_hooks.o
                0x000000009d0068d8                vApplicationStackOverflowHook

.text.vApplicationMallocFailedHook
                0x000000009d0068fc       0x24
 .text.vApplicationMallocFailedHook
                0x000000009d0068fc       0x24 build/default/production/_ext/1171490990/freertos_hooks.o
                0x000000009d0068fc                vApplicationMallocFailedHook

.text.prvTaskExitError
                0x000000009d006920       0x24
 .text.prvTaskExitError
                0x000000009d006920       0x24 build/default/production/_ext/951553248/port.o

.text.MOUSE_ReportCreate
                0x000000009d006944       0x24
 .text.MOUSE_ReportCreate
                0x000000009d006944       0x24 build/default/production/_ext/1360937237/mouse.o
                0x000000009d006944                MOUSE_ReportCreate

.text.EVIC_Initialize
                0x000000009d006968       0x20
 .text.EVIC_Initialize
                0x000000009d006968       0x20 build/default/production/_ext/1865200349/plib_evic.o
                0x000000009d006968                EVIC_Initialize

.rodata.sd002   0x000000009d006988       0x20
 .rodata.sd002  0x000000009d006988       0x20 build/default/production/_ext/1171490990/usb_device_init_data.o

.text.F_USB_DEVICE_Tasks
                0x000000009d0069a8       0x20
 .text.F_USB_DEVICE_Tasks
                0x000000009d0069a8       0x20 build/default/production/_ext/1171490990/tasks.o

.rodata.SYS_Tasks.str1.4
                0x000000009d0069c8       0x20
 .rodata.SYS_Tasks.str1.4
                0x000000009d0069c8       0x20 build/default/production/_ext/1171490990/tasks.o

.text.vListInitialise
                0x000000009d0069e8       0x20
 .text.vListInitialise
                0x000000009d0069e8       0x20 build/default/production/_ext/404212886/list.o
                0x000000009d0069e8                vListInitialise

.text.pvTaskIncrementMutexHeldCount
                0x000000009d006a08       0x20
 .text.pvTaskIncrementMutexHeldCount
                0x000000009d006a08       0x20 build/default/production/_ext/404212886/FreeRTOS_tasks.o
                0x000000009d006a08                pvTaskIncrementMutexHeldCount

.text.main      0x000000009d006a28       0x20
 .text.main     0x000000009d006a28       0x20 build/default/production/_ext/1360937237/main.o
                0x000000009d006a28                main

.text           0x000000009d006a48       0x20
 .text          0x000000009d006a48       0x20 c:/program files/microchip/xc32/v4.60/bin/bin/../../lib/gcc/pic32mx/8.3.1/../../../../pic32mx/lib\libpic32.a(pic32_data_init_copy.o)
                0x000000009d006a48                __dinit_copy_needed
                0x000000009d006a48                __dinit_copy

.text.DRV_USBFS_USB_Handler
                0x000000009d006a68       0x1c
 .text.DRV_USBFS_USB_Handler
                0x000000009d006a68       0x1c build/default/production/_ext/2128569739/drv_usbfs.o
                0x000000009d006a68                DRV_USBFS_USB_Handler

.text.USB_1_Handler
                0x000000009d006a84       0x1c
 .text.USB_1_Handler
                0x000000009d006a84       0x1c build/default/production/_ext/1171490990/interrupts.o
                0x000000009d006a84                USB_1_Handler

.MIPS.abiflags  0x000000009d006aa0       0x18
 .MIPS.abiflags
                0x000000009d006aa0       0x18 c:/program files/microchip/xc32/v4.60/bin/bin/../../lib/gcc/pic32mx/8.3.1/../../../../pic32mx/lib\debug-exception-return.o

.text.lAPP_Tasks
                0x000000009d006ab8       0x18
 .text.lAPP_Tasks
                0x000000009d006ab8       0x18 build/default/production/_ext/1171490990/tasks.o

.text._general_exception_handler
                0x000000009d006ad0       0x18
 .text._general_exception_handler
                0x000000009d006ad0       0x18 build/default/production/_ext/1171490990/exceptions.o
                0x000000009d006ad0                _general_exception_handler

.text._bootstrap_exception_handler
                0x000000009d006ae8       0x18
 .text._bootstrap_exception_handler
                0x000000009d006ae8       0x18 build/default/production/_ext/1171490990/exceptions.o
                0x000000009d006ae8                _bootstrap_exception_handler

.text           0x000000009d006b00       0x30
 .text          0x000000009d006b00       0x18 c:/program files/microchip/xc32/v4.60/bin/bin/../../lib/gcc/pic32mx/8.3.1/../../../../pic32mx/lib\libpic32.a(default-nmi-handler.o)
                0x000000009d006b00                _nmi_handler
 .text          0x000000009d006b18       0x18 c:/program files/microchip/xc32/v4.60/bin/bin/../../lib/gcc/pic32mx/8.3.1/../../../../pic32mx/lib\libpic32.a(pic32_data_init_clear.o)
                0x000000009d006b18                __dinit_clear
                0x000000009d006b18                __dinit_clear_needed

.rodata.hidFuncDriver
                0x000000009d006b30       0x14
 .rodata.hidFuncDriver
                0x000000009d006b30       0x14 build/default/production/_ext/308758920/usb_device_hid.o
                0x000000009d006b30                hidFuncDriver

.rodata.usbDeviceDescriptor
                0x000000009d006b44       0x14
 .rodata.usbDeviceDescriptor
                0x000000009d006b44       0x14 build/default/production/_ext/1171490990/usb_device_init_data.o

.rodata.funcRegistrationTable
                0x000000009d006b58       0x14
 .rodata.funcRegistrationTable
                0x000000009d006b58       0x14 build/default/production/_ext/1171490990/usb_device_init_data.o

.text.vTaskSuspendAll
                0x000000009d006b6c       0x14
 .text.vTaskSuspendAll
                0x000000009d006b6c       0x14 build/default/production/_ext/404212886/FreeRTOS_tasks.o
                0x000000009d006b6c                vTaskSuspendAll

.text.vTaskInternalSetTimeOutState
                0x000000009d006b80       0x14
 .text.vTaskInternalSetTimeOutState
                0x000000009d006b80       0x14 build/default/production/_ext/404212886/FreeRTOS_tasks.o
                0x000000009d006b80                vTaskInternalSetTimeOutState

.rodata         0x000000009d006b94       0x14
 .rodata        0x000000009d006b94       0x14 c:/program files/microchip/xc32/v4.60/bin/bin/../../lib/gcc/pic32mx/8.3.1/../../../../pic32mx/lib\libpic32.a(pic32_data_init_core.o)

.text.DRV_USBFS_DEVICE_CurrentSpeedGet
                0x000000009d006ba8       0x10
 .text.DRV_USBFS_DEVICE_CurrentSpeedGet
                0x000000009d006ba8       0x10 build/default/production/_ext/2128569739/drv_usbfs_device.o
                0x000000009d006ba8                DRV_USBFS_DEVICE_CurrentSpeedGet

.rodata.hidInit0
                0x000000009d006bb8       0x10
 .rodata.hidInit0
                0x000000009d006bb8       0x10 build/default/production/_ext/1171490990/usb_device_init_data.o

.text.vTaskMissedYield
                0x000000009d006bc8       0x10
 .text.vTaskMissedYield
                0x000000009d006bc8       0x10 build/default/production/_ext/404212886/FreeRTOS_tasks.o
                0x000000009d006bc8                vTaskMissedYield

.rodata.stringDescriptors
                0x000000009d006bd8        0xc
 .rodata.stringDescriptors
                0x000000009d006bd8        0xc build/default/production/_ext/1171490990/usb_device_init_data.o

.rodata.sd001   0x000000009d006be4        0xc
 .rodata.sd001  0x000000009d006be4        0xc build/default/production/_ext/1171490990/usb_device_init_data.o

.text.GPIO_Initialize
                0x000000009d006bf0        0x8
 .text.GPIO_Initialize
                0x000000009d006bf0        0x8 build/default/production/_ext/1865254177/plib_gpio.o
                0x000000009d006bf0                GPIO_Initialize

.text.vPortFree
                0x000000009d006bf8        0x8
 .text.vPortFree
                0x000000009d006bf8        0x8 build/default/production/_ext/1665200909/heap_1.o
                0x000000009d006bf8                vPortFree

.text.vListInitialiseItem
                0x000000009d006c00        0x8
 .text.vListInitialiseItem
                0x000000009d006c00        0x8 build/default/production/_ext/404212886/list.o
                0x000000009d006c00                vListInitialiseItem

.text._on_reset
                0x000000009d006c08        0x8
 .text._on_reset
                0x000000009d006c08        0x8 c:/program files/microchip/xc32/v4.60/bin/bin/../../lib/gcc/pic32mx/8.3.1/../../../../pic32mx/lib\libpic32.a(default-on-reset.o)
                0x000000009d006c08                _on_reset

.text._on_bootstrap
                0x000000009d006c10        0x8
 .text._on_bootstrap
                0x000000009d006c10        0x8 c:/program files/microchip/xc32/v4.60/bin/bin/../../lib/gcc/pic32mx/8.3.1/../../../../pic32mx/lib\libpic32.a(default-on-bootstrap.o)
                0x000000009d006c10                _on_bootstrap

.rodata.sd000   0x000000009d006c18        0x4
 .rodata.sd000  0x000000009d006c18        0x4 build/default/production/_ext/1171490990/usb_device_init_data.o

.rodata.fullSpeedConfigDescSet
                0x000000009d006c1c        0x4
 .rodata.fullSpeedConfigDescSet
                0x000000009d006c1c        0x4 build/default/production/_ext/1171490990/usb_device_init_data.o

.rodata.xISRStackTop
                0x000000009d006c20        0x4
 .rodata.xISRStackTop
                0x000000009d006c20        0x4 build/default/production/_ext/951553248/port.o
                0x000000009d006c20                xISRStackTop
